TN:
SF:/home/fboemer/repos/DBIO/intel-hexl/hexl/eltwise/eltwise-add-mod-avx512.cpp
FN:19,_ZN5intel4hexl19EltwiseAddModAVX512EPmPKmS3_mm
FN:65,_ZN5intel4hexl19EltwiseAddModAVX512EPmPKmmmm
FNDA:6202,_ZN5intel4hexl19EltwiseAddModAVX512EPmPKmS3_mm
FNDA:620002,_ZN5intel4hexl19EltwiseAddModAVX512EPmPKmmmm
FNF:2
FNH:2
DA:19,6202
DA:22,6202
DA:23,6202
DA:24,6202
DA:25,6202
DA:26,6202
DA:27,6202
DA:28,6202
DA:29,6202
DA:30,6202
DA:31,6202
DA:33,6202
DA:34,6202
DA:35,6200
DA:36,6200
DA:37,6200
DA:38,6200
DA:39,6200
DA:42,6202
DA:43,6202
DA:44,6202
DA:45,6202
DA:47,6202
DA:48,136404
DA:49,130202
DA:50,130202
DA:52,130202
DA:53,130202
DA:55,130202
DA:57,130202
DA:58,130202
DA:59,130202
DA:62,6202
DA:63,6202
DA:65,620002
DA:68,620002
DA:69,620002
DA:70,620002
DA:71,620002
DA:72,620002
DA:73,620002
DA:74,620002
DA:75,620002
DA:77,620002
DA:78,620002
DA:79,620000
DA:80,620000
DA:81,620000
DA:82,620000
DA:85,620002
DA:86,620002
DA:87,620002
DA:88,620002
DA:90,620002
DA:91,13640004
DA:92,13020002
DA:94,13020002
DA:95,13020002
DA:97,13020002
DA:99,13020002
DA:100,13020002
DA:103,620002
DA:104,620002
LF:63
LH:63
end_of_record
TN:
SF:/home/fboemer/repos/DBIO/intel-hexl/hexl/eltwise/eltwise-add-mod.cpp
FN:16,_ZN5intel4hexl19EltwiseAddModNativeEPmPKmS3_mm
FN:45,_ZN5intel4hexl19EltwiseAddModNativeEPmPKmmmm
FN:71,_ZN5intel4hexl13EltwiseAddModEPmPKmS3_mm
FN:94,_ZN5intel4hexl13EltwiseAddModEPmPKmmmm
FNDA:0,_ZN5intel4hexl13EltwiseAddModEPmPKmS3_mm
FNDA:12402,_ZN5intel4hexl19EltwiseAddModNativeEPmPKmS3_mm
FNDA:1240002,_ZN5intel4hexl19EltwiseAddModNativeEPmPKmmmm
FNDA:0,_ZN5intel4hexl13EltwiseAddModEPmPKmmmm
FNF:4
FNH:2
DA:16,12402
DA:19,12402
DA:20,12402
DA:21,12402
DA:22,12402
DA:23,12402
DA:24,12402
DA:25,12402
DA:26,12402
DA:27,12402
DA:28,12402
DA:30,12402
DA:31,1116018
DA:32,1103616
DA:33,1103616
DA:34,549606
DA:36,554010
DA:39,1103616
DA:40,1103616
DA:41,1103616
DA:43,12402
DA:45,1240002
DA:47,1240002
DA:48,1240002
DA:49,1240002
DA:50,1240002
DA:51,1240002
DA:52,1240002
DA:53,1240002
DA:54,1240002
DA:56,1240002
DA:58,1240002
DA:59,111600018
DA:60,110360016
DA:61,54249512
DA:63,56110504
DA:66,110360016
DA:67,110360016
DA:69,1240002
DA:71,0
DA:73,0
DA:74,0
DA:75,0
DA:76,0
DA:77,0
DA:78,0
DA:79,0
DA:80,0
DA:81,0
DA:84,0
DA:85,0
DA:86,0
DA:90,0
DA:91,0
DA:94,0
DA:96,0
DA:97,0
DA:98,0
DA:99,0
DA:100,0
DA:101,0
DA:102,0
DA:105,0
DA:106,0
DA:107,0
DA:111,0
DA:112,0
LF:67
LH:39
end_of_record
TN:
SF:/home/fboemer/repos/DBIO/intel-hexl/hexl/eltwise/eltwise-cmp-add-avx512.cpp
FN:18,_ZN5intel4hexl19EltwiseCmpAddAVX512EPmPKmmNS0_6CMPINTEmm
FNDA:3200,_ZN5intel4hexl19EltwiseCmpAddAVX512EPmPKmmNS0_6CMPINTEmm
FNF:1
FNH:1
DA:18,3200
DA:20,3200
DA:21,3200
DA:22,3200
DA:23,3200
DA:25,3200
DA:26,3200
DA:27,3200
DA:28,3200
DA:29,3200
DA:30,3200
DA:33,3200
DA:34,3200
DA:35,3200
DA:36,412800
DA:37,409600
DA:38,409600
DA:39,409600
DA:40,409600
DA:42,409600
DA:43,409600
DA:45,3200
LF:22
LH:22
end_of_record
TN:
SF:/home/fboemer/repos/DBIO/intel-hexl/hexl/eltwise/eltwise-cmp-add.cpp
FN:16,_ZN5intel4hexl13EltwiseCmpAddEPmPKmmNS0_6CMPINTEmm
FN:32,_ZN5intel4hexl19EltwiseCmpAddNativeEPmPKmmNS0_6CMPINTEmm
FNDA:1600,_ZN5intel4hexl13EltwiseCmpAddEPmPKmmNS0_6CMPINTEmm
FNDA:4808,_ZN5intel4hexl19EltwiseCmpAddNativeEPmPKmmNS0_6CMPINTEmm
FNF:2
FNH:2
DA:16,1600
DA:18,1600
DA:19,1600
DA:20,1600
DA:21,1600
DA:24,1600
DA:25,1600
DA:26,1600
DA:29,0
DA:32,4808
DA:34,4808
DA:35,4808
DA:36,4808
DA:37,4808
DA:39,4808
DA:41,206008
DA:42,205407
DA:43,2049
DA:45,203358
DA:51,206008
DA:52,205407
DA:53,99815
DA:55,105592
DA:60,206008
DA:61,205407
DA:62,103499
DA:64,101908
DA:69,206008
DA:70,205407
DA:74,206008
DA:75,205407
DA:76,203385
DA:78,2022
DA:83,206008
DA:84,205407
DA:85,98859
DA:87,106548
DA:92,206008
DA:93,205407
DA:94,98715
DA:96,106692
DA:101,206008
DA:102,205407
DA:106,4808
LF:44
LH:43
end_of_record
TN:
SF:/home/fboemer/repos/DBIO/intel-hexl/hexl/eltwise/eltwise-cmp-sub-mod-avx512.cpp
FN:18,_ZN5intel4hexl22EltwiseCmpSubModAVX512EPmPKmmmNS0_6CMPINTEmm
FNDA:12800,_ZN5intel4hexl22EltwiseCmpSubModAVX512EPmPKmmmNS0_6CMPINTEmm
FNF:1
FNH:1
DA:18,12800
DA:21,12800
DA:22,12800
DA:23,12800
DA:24,12800
DA:25,12800
DA:26,12800
DA:28,12800
DA:29,12800
DA:30,12800
DA:32,12800
DA:33,12800
DA:34,12800
DA:36,12800
DA:38,12800
DA:39,12800
DA:40,12800
DA:41,12800
DA:42,12800
DA:44,12800
DA:45,12800
DA:47,281600
DA:48,268800
DA:49,537600
DA:51,268800
DA:53,268800
DA:54,268800
DA:55,268800
DA:57,268800
DA:58,268800
DA:59,268800
DA:60,268800
DA:62,12800
LF:33
LH:33
end_of_record
TN:
SF:/home/fboemer/repos/DBIO/intel-hexl/hexl/eltwise/eltwise-cmp-sub-mod.cpp
FN:18,_ZN5intel4hexl16EltwiseCmpSubModEPmPKmmmNS0_6CMPINTEmm
FN:36,_ZN5intel4hexl22EltwiseCmpSubModNativeEPmPKmmmNS0_6CMPINTEmm
FNDA:19200,_ZN5intel4hexl22EltwiseCmpSubModNativeEPmPKmmmNS0_6CMPINTEmm
FNDA:6400,_ZN5intel4hexl16EltwiseCmpSubModEPmPKmmmNS0_6CMPINTEmm
FNF:2
FNH:2
DA:18,6400
DA:21,6400
DA:22,6400
DA:23,6400
DA:24,6400
DA:25,6400
DA:28,6400
DA:29,6400
DA:30,6400
DA:33,0
DA:36,19200
DA:39,19200
DA:40,19200
DA:41,19200
DA:42,19200
DA:43,19200
DA:44,19200
DA:46,1171200
DA:47,1152000
DA:49,1152000
DA:50,1152000
DA:52,1152000
DA:53,575653
DA:55,1152000
DA:57,19200
LF:25
LH:24
end_of_record
TN:
SF:/home/fboemer/repos/DBIO/intel-hexl/hexl/eltwise/eltwise-fma-mod-avx512.cpp
FN:52,_ZN5intel4hexl19EltwiseFMAModAVX512ILi64ELi1EEEvPmPKmmS4_mm
FN:52,_ZN5intel4hexl19EltwiseFMAModAVX512ILi52ELi1EEEvPmPKmmS4_mm
FN:52,_ZN5intel4hexl19EltwiseFMAModAVX512ILi64ELi2EEEvPmPKmmS4_mm
FN:52,_ZN5intel4hexl19EltwiseFMAModAVX512ILi64ELi4EEEvPmPKmmS4_mm
FN:52,_ZN5intel4hexl19EltwiseFMAModAVX512ILi52ELi2EEEvPmPKmmS4_mm
FN:52,_ZN5intel4hexl19EltwiseFMAModAVX512ILi52ELi4EEEvPmPKmmS4_mm
FN:52,_ZN5intel4hexl19EltwiseFMAModAVX512ILi52ELi8EEEvPmPKmmS4_mm
FN:52,_ZN5intel4hexl19EltwiseFMAModAVX512ILi64ELi8EEEvPmPKmmS4_mm
FNDA:14201,_ZN5intel4hexl19EltwiseFMAModAVX512ILi64ELi8EEEvPmPKmmS4_mm
FNDA:9801,_ZN5intel4hexl19EltwiseFMAModAVX512ILi52ELi8EEEvPmPKmmS4_mm
FNDA:4901,_ZN5intel4hexl19EltwiseFMAModAVX512ILi52ELi4EEEvPmPKmmS4_mm
FNDA:5001,_ZN5intel4hexl19EltwiseFMAModAVX512ILi52ELi2EEEvPmPKmmS4_mm
FNDA:7101,_ZN5intel4hexl19EltwiseFMAModAVX512ILi64ELi4EEEvPmPKmmS4_mm
FNDA:7001,_ZN5intel4hexl19EltwiseFMAModAVX512ILi64ELi2EEEvPmPKmmS4_mm
FNDA:5103,_ZN5intel4hexl19EltwiseFMAModAVX512ILi52ELi1EEEvPmPKmmS4_mm
FNDA:6903,_ZN5intel4hexl19EltwiseFMAModAVX512ILi64ELi1EEEvPmPKmmS4_mm
FNF:8
FNH:8
DA:52,60012
DA:69,60012
DA:70,60012
DA:71,48005
DA:73,48005
DA:74,48005
DA:75,24004
DA:77,48005
DA:78,48005
DA:81,60012
DA:82,60012
DA:83,101894
DA:85,60012
DA:87,60012
DA:89,60012
DA:90,60012
DA:91,60012
DA:92,60012
DA:93,60012
DA:94,60012
DA:95,60012
DA:98,60012
DA:100,60012
DA:101,30011
DA:103,3870030
DA:104,3840019
DA:105,3840019
DA:107,3840019
DA:109,3840019
DA:112,3840019
DA:113,3840019
DA:117,3840019
DA:120,3840019
DA:122,3840019
DA:124,3840019
DA:126,3840019
DA:127,3840019
DA:128,3840019
DA:132,3870002
DA:133,3840001
DA:134,3840001
DA:137,3840001
DA:138,3840001
DA:142,3840001
DA:144,3840001
DA:145,3840001
DA:147,3840001
DA:148,3840001
DA:151,60012
LF:49
LH:49
end_of_record
TN:
SF:/home/fboemer/repos/DBIO/intel-hexl/hexl/eltwise/eltwise-fma-mod-internal.hpp
FN:12,_ZN5intel4hexl19EltwiseFMAModNativeILi8EEEvPmPKmmS4_mm
FN:12,_ZN5intel4hexl19EltwiseFMAModNativeILi1EEEvPmPKmmS4_mm
FN:12,_ZN5intel4hexl19EltwiseFMAModNativeILi2EEEvPmPKmmS4_mm
FN:12,_ZN5intel4hexl19EltwiseFMAModNativeILi4EEEvPmPKmmS4_mm
FNDA:18001,_ZN5intel4hexl19EltwiseFMAModNativeILi8EEEvPmPKmmS4_mm
FNDA:18002,_ZN5intel4hexl19EltwiseFMAModNativeILi1EEEvPmPKmmS4_mm
FNDA:18001,_ZN5intel4hexl19EltwiseFMAModNativeILi4EEEvPmPKmmS4_mm
FNDA:18001,_ZN5intel4hexl19EltwiseFMAModNativeILi2EEEvPmPKmmS4_mm
FNF:4
FNH:4
DA:12,72005
DA:14,72005
DA:15,72005
DA:16,72005
DA:19,72005
DA:20,72005
DA:21,12576008
DA:22,12540004
DA:24,12540004
DA:28,12540004
DA:29,12540004
DA:30,12540004
DA:33,12576002
DA:34,12540001
DA:36,12540001
DA:39,72005
LF:16
LH:16
end_of_record
TN:
SF:/home/fboemer/repos/DBIO/intel-hexl/hexl/eltwise/eltwise-fma-mod.cpp
FN:17,_ZN5intel4hexl13EltwiseFMAModEPmPKmmS3_mmm
FNDA:28006,_ZN5intel4hexl13EltwiseFMAModEPmPKmmS3_mmm
FNF:1
FNH:1
DA:17,28006
DA:20,28006
DA:21,28006
DA:22,28006
DA:23,28006
DA:24,28006
DA:25,28006
DA:28,28006
DA:29,28006
DA:31,28006
DA:33,28006
DA:36,28006
DA:37,28006
DA:40,28006
DA:43,28006
DA:44,20806
DA:46,20806
DA:47,5103
DA:48,5103
DA:49,5103
DA:50,5001
DA:51,5001
DA:52,5001
DA:53,4901
DA:54,4901
DA:55,4901
DA:56,5801
DA:57,5801
DA:58,5801
DA:60,20806
DA:65,7200
DA:66,7200
DA:68,7200
DA:69,900
DA:70,900
DA:71,900
DA:72,1000
DA:73,1000
DA:74,1000
DA:75,1100
DA:76,1100
DA:77,1100
DA:78,4200
DA:79,4200
DA:80,4200
DA:82,7200
DA:86,0
DA:87,0
DA:88,0
DA:89,0
DA:90,0
DA:91,0
DA:92,0
DA:93,0
DA:94,0
DA:95,0
DA:96,0
DA:97,0
DA:98,0
DA:99,0
LF:60
LH:46
end_of_record
TN:
SF:/home/fboemer/repos/DBIO/intel-hexl/hexl/eltwise/eltwise-mult-mod-avx512dq.cpp
FN:54,_ZN5intel4hexl35EltwiseMultModAVX512DQIntLoopUnrollILi54ELi1ELi16384EEEvPDv8_xPKS2_S5_S2_S2_S2_
FN:54,_ZN5intel4hexl35EltwiseMultModAVX512DQIntLoopUnrollILi61ELi1ELi1024EEEvPDv8_xPKS2_S5_S2_S2_S2_
FN:54,_ZN5intel4hexl35EltwiseMultModAVX512DQIntLoopUnrollILi60ELi4ELi32768EEEvPDv8_xPKS2_S5_S2_S2_S2_
FN:54,_ZN5intel4hexl35EltwiseMultModAVX512DQIntLoopUnrollILi52ELi1ELi4096EEEvPDv8_xPKS2_S5_S2_S2_S2_
FN:54,_ZN5intel4hexl35EltwiseMultModAVX512DQIntLoopUnrollILi60ELi1ELi4096EEEvPDv8_xPKS2_S5_S2_S2_S2_
FN:54,_ZN5intel4hexl35EltwiseMultModAVX512DQIntLoopUnrollILi60ELi2ELi1024EEEvPDv8_xPKS2_S5_S2_S2_S2_
FN:54,_ZN5intel4hexl35EltwiseMultModAVX512DQIntLoopUnrollILi56ELi1ELi8192EEEvPDv8_xPKS2_S5_S2_S2_S2_
FN:54,_ZN5intel4hexl35EltwiseMultModAVX512DQIntLoopUnrollILi58ELi1ELi4096EEEvPDv8_xPKS2_S5_S2_S2_S2_
FN:54,_ZN5intel4hexl35EltwiseMultModAVX512DQIntLoopUnrollILi58ELi1ELi1024EEEvPDv8_xPKS2_S5_S2_S2_S2_
FN:54,_ZN5intel4hexl35EltwiseMultModAVX512DQIntLoopUnrollILi50ELi1ELi4096EEEvPDv8_xPKS2_S5_S2_S2_S2_
FN:54,_ZN5intel4hexl35EltwiseMultModAVX512DQIntLoopUnrollILi60ELi4ELi1024EEEvPDv8_xPKS2_S5_S2_S2_S2_
FN:54,_ZN5intel4hexl35EltwiseMultModAVX512DQIntLoopUnrollILi59ELi2ELi1024EEEvPDv8_xPKS2_S5_S2_S2_S2_
FN:54,_ZN5intel4hexl35EltwiseMultModAVX512DQIntLoopUnrollILi54ELi1ELi32768EEEvPDv8_xPKS2_S5_S2_S2_S2_
FN:54,_ZN5intel4hexl35EltwiseMultModAVX512DQIntLoopUnrollILi51ELi1ELi8192EEEvPDv8_xPKS2_S5_S2_S2_S2_
FN:54,_ZN5intel4hexl35EltwiseMultModAVX512DQIntLoopUnrollILi51ELi1ELi2048EEEvPDv8_xPKS2_S5_S2_S2_S2_
FN:54,_ZN5intel4hexl35EltwiseMultModAVX512DQIntLoopUnrollILi60ELi2ELi4096EEEvPDv8_xPKS2_S5_S2_S2_S2_
FN:54,_ZN5intel4hexl35EltwiseMultModAVX512DQIntLoopUnrollILi56ELi1ELi2048EEEvPDv8_xPKS2_S5_S2_S2_S2_
FN:54,_ZN5intel4hexl35EltwiseMultModAVX512DQIntLoopUnrollILi60ELi2ELi2048EEEvPDv8_xPKS2_S5_S2_S2_S2_
FN:54,_ZN5intel4hexl35EltwiseMultModAVX512DQIntLoopUnrollILi52ELi1ELi2048EEEvPDv8_xPKS2_S5_S2_S2_S2_
FN:54,_ZN5intel4hexl35EltwiseMultModAVX512DQIntLoopUnrollILi51ELi1ELi16384EEEvPDv8_xPKS2_S5_S2_S2_S2_
FN:54,_ZN5intel4hexl35EltwiseMultModAVX512DQIntLoopUnrollILi58ELi1ELi16384EEEvPDv8_xPKS2_S5_S2_S2_S2_
FN:54,_ZN5intel4hexl35EltwiseMultModAVX512DQIntLoopUnrollILi55ELi1ELi8192EEEvPDv8_xPKS2_S5_S2_S2_S2_
FN:54,_ZN5intel4hexl35EltwiseMultModAVX512DQIntLoopUnrollILi59ELi2ELi32768EEEvPDv8_xPKS2_S5_S2_S2_S2_
FN:54,_ZN5intel4hexl35EltwiseMultModAVX512DQIntLoopUnrollILi60ELi1ELi2048EEEvPDv8_xPKS2_S5_S2_S2_S2_
FN:54,_ZN5intel4hexl35EltwiseMultModAVX512DQIntLoopUnrollILi57ELi1ELi16384EEEvPDv8_xPKS2_S5_S2_S2_S2_
FN:54,_ZN5intel4hexl35EltwiseMultModAVX512DQIntLoopUnrollILi59ELi2ELi4096EEEvPDv8_xPKS2_S5_S2_S2_S2_
FN:54,_ZN5intel4hexl35EltwiseMultModAVX512DQIntLoopUnrollILi59ELi1ELi2048EEEvPDv8_xPKS2_S5_S2_S2_S2_
FN:54,_ZN5intel4hexl35EltwiseMultModAVX512DQIntLoopUnrollILi61ELi4ELi32768EEEvPDv8_xPKS2_S5_S2_S2_S2_
FN:54,_ZN5intel4hexl35EltwiseMultModAVX512DQIntLoopUnrollILi51ELi1ELi32768EEEvPDv8_xPKS2_S5_S2_S2_S2_
FN:54,_ZN5intel4hexl35EltwiseMultModAVX512DQIntLoopUnrollILi56ELi1ELi1024EEEvPDv8_xPKS2_S5_S2_S2_S2_
FN:54,_ZN5intel4hexl35EltwiseMultModAVX512DQIntLoopUnrollILi60ELi2ELi16384EEEvPDv8_xPKS2_S5_S2_S2_S2_
FN:54,_ZN5intel4hexl35EltwiseMultModAVX512DQIntLoopUnrollILi58ELi1ELi8192EEEvPDv8_xPKS2_S5_S2_S2_S2_
FN:54,_ZN5intel4hexl35EltwiseMultModAVX512DQIntLoopUnrollILi54ELi1ELi2048EEEvPDv8_xPKS2_S5_S2_S2_S2_
FN:54,_ZN5intel4hexl35EltwiseMultModAVX512DQIntLoopUnrollILi61ELi2ELi2048EEEvPDv8_xPKS2_S5_S2_S2_S2_
FN:54,_ZN5intel4hexl35EltwiseMultModAVX512DQIntLoopUnrollILi59ELi1ELi16384EEEvPDv8_xPKS2_S5_S2_S2_S2_
FN:54,_ZN5intel4hexl35EltwiseMultModAVX512DQIntLoopUnrollILi61ELi4ELi16384EEEvPDv8_xPKS2_S5_S2_S2_S2_
FN:54,_ZN5intel4hexl35EltwiseMultModAVX512DQIntLoopUnrollILi59ELi1ELi4096EEEvPDv8_xPKS2_S5_S2_S2_S2_
FN:54,_ZN5intel4hexl35EltwiseMultModAVX512DQIntLoopUnrollILi62ELi4ELi2048EEEvPDv8_xPKS2_S5_S2_S2_S2_
FN:54,_ZN5intel4hexl35EltwiseMultModAVX512DQIntLoopUnrollILi61ELi1ELi4096EEEvPDv8_xPKS2_S5_S2_S2_S2_
FN:54,_ZN5intel4hexl35EltwiseMultModAVX512DQIntLoopUnrollILi61ELi1ELi16384EEEvPDv8_xPKS2_S5_S2_S2_S2_
FN:54,_ZN5intel4hexl35EltwiseMultModAVX512DQIntLoopUnrollILi54ELi1ELi1024EEEvPDv8_xPKS2_S5_S2_S2_S2_
FN:54,_ZN5intel4hexl35EltwiseMultModAVX512DQIntLoopUnrollILi61ELi2ELi1024EEEvPDv8_xPKS2_S5_S2_S2_S2_
FN:54,_ZN5intel4hexl35EltwiseMultModAVX512DQIntLoopUnrollILi53ELi1ELi8192EEEvPDv8_xPKS2_S5_S2_S2_S2_
FN:54,_ZN5intel4hexl35EltwiseMultModAVX512DQIntLoopUnrollILi58ELi1ELi32768EEEvPDv8_xPKS2_S5_S2_S2_S2_
FN:54,_ZN5intel4hexl35EltwiseMultModAVX512DQIntLoopUnrollILi55ELi1ELi16384EEEvPDv8_xPKS2_S5_S2_S2_S2_
FN:54,_ZN5intel4hexl35EltwiseMultModAVX512DQIntLoopUnrollILi61ELi1ELi2048EEEvPDv8_xPKS2_S5_S2_S2_S2_
FN:54,_ZN5intel4hexl35EltwiseMultModAVX512DQIntLoopUnrollILi54ELi1ELi8192EEEvPDv8_xPKS2_S5_S2_S2_S2_
FN:54,_ZN5intel4hexl35EltwiseMultModAVX512DQIntLoopUnrollILi61ELi2ELi4096EEEvPDv8_xPKS2_S5_S2_S2_S2_
FN:54,_ZN5intel4hexl35EltwiseMultModAVX512DQIntLoopUnrollILi62ELi4ELi1024EEEvPDv8_xPKS2_S5_S2_S2_S2_
FN:54,_ZN5intel4hexl35EltwiseMultModAVX512DQIntLoopUnrollILi58ELi1ELi2048EEEvPDv8_xPKS2_S5_S2_S2_S2_
FN:54,_ZN5intel4hexl35EltwiseMultModAVX512DQIntLoopUnrollILi50ELi1ELi1024EEEvPDv8_xPKS2_S5_S2_S2_S2_
FN:54,_ZN5intel4hexl35EltwiseMultModAVX512DQIntLoopUnrollILi54ELi1ELi4096EEEvPDv8_xPKS2_S5_S2_S2_S2_
FN:54,_ZN5intel4hexl35EltwiseMultModAVX512DQIntLoopUnrollILi50ELi1ELi2048EEEvPDv8_xPKS2_S5_S2_S2_S2_
FN:54,_ZN5intel4hexl35EltwiseMultModAVX512DQIntLoopUnrollILi52ELi1ELi32768EEEvPDv8_xPKS2_S5_S2_S2_S2_
FN:54,_ZN5intel4hexl35EltwiseMultModAVX512DQIntLoopUnrollILi61ELi1ELi8192EEEvPDv8_xPKS2_S5_S2_S2_S2_
FN:54,_ZN5intel4hexl35EltwiseMultModAVX512DQIntLoopUnrollILi59ELi1ELi1024EEEvPDv8_xPKS2_S5_S2_S2_S2_
FN:54,_ZN5intel4hexl35EltwiseMultModAVX512DQIntLoopUnrollILi57ELi1ELi2048EEEvPDv8_xPKS2_S5_S2_S2_S2_
FN:54,_ZN5intel4hexl35EltwiseMultModAVX512DQIntLoopUnrollILi55ELi1ELi2048EEEvPDv8_xPKS2_S5_S2_S2_S2_
FN:54,_ZN5intel4hexl35EltwiseMultModAVX512DQIntLoopUnrollILi60ELi2ELi8192EEEvPDv8_xPKS2_S5_S2_S2_S2_
FN:54,_ZN5intel4hexl35EltwiseMultModAVX512DQIntLoopUnrollILi52ELi1ELi1024EEEvPDv8_xPKS2_S5_S2_S2_S2_
FN:54,_ZN5intel4hexl35EltwiseMultModAVX512DQIntLoopUnrollILi61ELi4ELi4096EEEvPDv8_xPKS2_S5_S2_S2_S2_
FN:54,_ZN5intel4hexl35EltwiseMultModAVX512DQIntLoopUnrollILi59ELi1ELi8192EEEvPDv8_xPKS2_S5_S2_S2_S2_
FN:54,_ZN5intel4hexl35EltwiseMultModAVX512DQIntLoopUnrollILi55ELi1ELi32768EEEvPDv8_xPKS2_S5_S2_S2_S2_
FN:54,_ZN5intel4hexl35EltwiseMultModAVX512DQIntLoopUnrollILi56ELi1ELi32768EEEvPDv8_xPKS2_S5_S2_S2_S2_
FN:54,_ZN5intel4hexl35EltwiseMultModAVX512DQIntLoopUnrollILi62ELi2ELi8192EEEvPDv8_xPKS2_S5_S2_S2_S2_
FN:54,_ZN5intel4hexl35EltwiseMultModAVX512DQIntLoopUnrollILi51ELi1ELi4096EEEvPDv8_xPKS2_S5_S2_S2_S2_
FN:54,_ZN5intel4hexl35EltwiseMultModAVX512DQIntLoopUnrollILi62ELi2ELi32768EEEvPDv8_xPKS2_S5_S2_S2_S2_
FN:54,_ZN5intel4hexl35EltwiseMultModAVX512DQIntLoopUnrollILi52ELi1ELi16384EEEvPDv8_xPKS2_S5_S2_S2_S2_
FN:54,_ZN5intel4hexl35EltwiseMultModAVX512DQIntLoopUnrollILi50ELi1ELi32768EEEvPDv8_xPKS2_S5_S2_S2_S2_
FN:54,_ZN5intel4hexl35EltwiseMultModAVX512DQIntLoopUnrollILi59ELi2ELi2048EEEvPDv8_xPKS2_S5_S2_S2_S2_
FN:54,_ZN5intel4hexl35EltwiseMultModAVX512DQIntLoopUnrollILi60ELi1ELi16384EEEvPDv8_xPKS2_S5_S2_S2_S2_
FN:54,_ZN5intel4hexl35EltwiseMultModAVX512DQIntLoopUnrollILi55ELi1ELi4096EEEvPDv8_xPKS2_S5_S2_S2_S2_
FN:54,_ZN5intel4hexl35EltwiseMultModAVX512DQIntLoopUnrollILi56ELi1ELi4096EEEvPDv8_xPKS2_S5_S2_S2_S2_
FN:54,_ZN5intel4hexl35EltwiseMultModAVX512DQIntLoopUnrollILi60ELi1ELi8192EEEvPDv8_xPKS2_S5_S2_S2_S2_
FN:54,_ZN5intel4hexl35EltwiseMultModAVX512DQIntLoopUnrollILi61ELi4ELi8192EEEvPDv8_xPKS2_S5_S2_S2_S2_
FN:54,_ZN5intel4hexl35EltwiseMultModAVX512DQIntLoopUnrollILi62ELi4ELi32768EEEvPDv8_xPKS2_S5_S2_S2_S2_
FN:54,_ZN5intel4hexl35EltwiseMultModAVX512DQIntLoopUnrollILi53ELi1ELi2048EEEvPDv8_xPKS2_S5_S2_S2_S2_
FN:54,_ZN5intel4hexl35EltwiseMultModAVX512DQIntLoopUnrollILi50ELi1ELi16384EEEvPDv8_xPKS2_S5_S2_S2_S2_
FN:54,_ZN5intel4hexl35EltwiseMultModAVX512DQIntLoopUnrollILi59ELi2ELi16384EEEvPDv8_xPKS2_S5_S2_S2_S2_
FN:54,_ZN5intel4hexl35EltwiseMultModAVX512DQIntLoopUnrollILi62ELi4ELi4096EEEvPDv8_xPKS2_S5_S2_S2_S2_
FN:54,_ZN5intel4hexl35EltwiseMultModAVX512DQIntLoopUnrollILi57ELi1ELi32768EEEvPDv8_xPKS2_S5_S2_S2_S2_
FN:54,_ZN5intel4hexl35EltwiseMultModAVX512DQIntLoopUnrollILi60ELi1ELi1024EEEvPDv8_xPKS2_S5_S2_S2_S2_
FN:54,_ZN5intel4hexl35EltwiseMultModAVX512DQIntLoopUnrollILi53ELi1ELi1024EEEvPDv8_xPKS2_S5_S2_S2_S2_
FN:54,_ZN5intel4hexl35EltwiseMultModAVX512DQIntLoopUnrollILi62ELi2ELi2048EEEvPDv8_xPKS2_S5_S2_S2_S2_
FN:54,_ZN5intel4hexl35EltwiseMultModAVX512DQIntLoopUnrollILi59ELi2ELi8192EEEvPDv8_xPKS2_S5_S2_S2_S2_
FN:54,_ZN5intel4hexl35EltwiseMultModAVX512DQIntLoopUnrollILi57ELi1ELi8192EEEvPDv8_xPKS2_S5_S2_S2_S2_
FN:54,_ZN5intel4hexl35EltwiseMultModAVX512DQIntLoopUnrollILi60ELi4ELi16384EEEvPDv8_xPKS2_S5_S2_S2_S2_
FN:54,_ZN5intel4hexl35EltwiseMultModAVX512DQIntLoopUnrollILi61ELi4ELi2048EEEvPDv8_xPKS2_S5_S2_S2_S2_
FN:54,_ZN5intel4hexl35EltwiseMultModAVX512DQIntLoopUnrollILi60ELi1ELi32768EEEvPDv8_xPKS2_S5_S2_S2_S2_
FN:54,_ZN5intel4hexl35EltwiseMultModAVX512DQIntLoopUnrollILi61ELi2ELi16384EEEvPDv8_xPKS2_S5_S2_S2_S2_
FN:54,_ZN5intel4hexl35EltwiseMultModAVX512DQIntLoopUnrollILi53ELi1ELi4096EEEvPDv8_xPKS2_S5_S2_S2_S2_
FN:54,_ZN5intel4hexl35EltwiseMultModAVX512DQIntLoopUnrollILi60ELi2ELi32768EEEvPDv8_xPKS2_S5_S2_S2_S2_
FN:54,_ZN5intel4hexl35EltwiseMultModAVX512DQIntLoopUnrollILi52ELi1ELi8192EEEvPDv8_xPKS2_S5_S2_S2_S2_
FN:54,_ZN5intel4hexl35EltwiseMultModAVX512DQIntLoopUnrollILi61ELi1ELi32768EEEvPDv8_xPKS2_S5_S2_S2_S2_
FN:54,_ZN5intel4hexl35EltwiseMultModAVX512DQIntLoopUnrollILi62ELi2ELi16384EEEvPDv8_xPKS2_S5_S2_S2_S2_
FN:54,_ZN5intel4hexl35EltwiseMultModAVX512DQIntLoopUnrollILi59ELi4ELi8192EEEvPDv8_xPKS2_S5_S2_S2_S2_
FN:54,_ZN5intel4hexl35EltwiseMultModAVX512DQIntLoopUnrollILi59ELi4ELi4096EEEvPDv8_xPKS2_S5_S2_S2_S2_
FN:54,_ZN5intel4hexl35EltwiseMultModAVX512DQIntLoopUnrollILi61ELi4ELi1024EEEvPDv8_xPKS2_S5_S2_S2_S2_
FN:54,_ZN5intel4hexl35EltwiseMultModAVX512DQIntLoopUnrollILi60ELi4ELi4096EEEvPDv8_xPKS2_S5_S2_S2_S2_
FN:54,_ZN5intel4hexl35EltwiseMultModAVX512DQIntLoopUnrollILi50ELi1ELi8192EEEvPDv8_xPKS2_S5_S2_S2_S2_
FN:54,_ZN5intel4hexl35EltwiseMultModAVX512DQIntLoopUnrollILi62ELi2ELi4096EEEvPDv8_xPKS2_S5_S2_S2_S2_
FN:54,_ZN5intel4hexl35EltwiseMultModAVX512DQIntLoopUnrollILi57ELi1ELi4096EEEvPDv8_xPKS2_S5_S2_S2_S2_
FN:54,_ZN5intel4hexl35EltwiseMultModAVX512DQIntLoopUnrollILi62ELi4ELi8192EEEvPDv8_xPKS2_S5_S2_S2_S2_
FN:54,_ZN5intel4hexl35EltwiseMultModAVX512DQIntLoopUnrollILi56ELi1ELi16384EEEvPDv8_xPKS2_S5_S2_S2_S2_
FN:54,_ZN5intel4hexl35EltwiseMultModAVX512DQIntLoopUnrollILi53ELi1ELi32768EEEvPDv8_xPKS2_S5_S2_S2_S2_
FN:54,_ZN5intel4hexl35EltwiseMultModAVX512DQIntLoopUnrollILi60ELi4ELi2048EEEvPDv8_xPKS2_S5_S2_S2_S2_
FN:54,_ZN5intel4hexl35EltwiseMultModAVX512DQIntLoopUnrollILi61ELi2ELi8192EEEvPDv8_xPKS2_S5_S2_S2_S2_
FN:54,_ZN5intel4hexl35EltwiseMultModAVX512DQIntLoopUnrollILi62ELi4ELi16384EEEvPDv8_xPKS2_S5_S2_S2_S2_
FN:54,_ZN5intel4hexl35EltwiseMultModAVX512DQIntLoopUnrollILi59ELi4ELi1024EEEvPDv8_xPKS2_S5_S2_S2_S2_
FN:54,_ZN5intel4hexl35EltwiseMultModAVX512DQIntLoopUnrollILi59ELi4ELi32768EEEvPDv8_xPKS2_S5_S2_S2_S2_
FN:54,_ZN5intel4hexl35EltwiseMultModAVX512DQIntLoopUnrollILi60ELi4ELi8192EEEvPDv8_xPKS2_S5_S2_S2_S2_
FN:54,_ZN5intel4hexl35EltwiseMultModAVX512DQIntLoopUnrollILi62ELi2ELi1024EEEvPDv8_xPKS2_S5_S2_S2_S2_
FN:54,_ZN5intel4hexl35EltwiseMultModAVX512DQIntLoopUnrollILi59ELi4ELi16384EEEvPDv8_xPKS2_S5_S2_S2_S2_
FN:54,_ZN5intel4hexl35EltwiseMultModAVX512DQIntLoopUnrollILi53ELi1ELi16384EEEvPDv8_xPKS2_S5_S2_S2_S2_
FN:54,_ZN5intel4hexl35EltwiseMultModAVX512DQIntLoopUnrollILi51ELi1ELi1024EEEvPDv8_xPKS2_S5_S2_S2_S2_
FN:54,_ZN5intel4hexl35EltwiseMultModAVX512DQIntLoopUnrollILi59ELi1ELi32768EEEvPDv8_xPKS2_S5_S2_S2_S2_
FN:54,_ZN5intel4hexl35EltwiseMultModAVX512DQIntLoopUnrollILi55ELi1ELi1024EEEvPDv8_xPKS2_S5_S2_S2_S2_
FN:54,_ZN5intel4hexl35EltwiseMultModAVX512DQIntLoopUnrollILi59ELi4ELi2048EEEvPDv8_xPKS2_S5_S2_S2_S2_
FN:54,_ZN5intel4hexl35EltwiseMultModAVX512DQIntLoopUnrollILi61ELi2ELi32768EEEvPDv8_xPKS2_S5_S2_S2_S2_
FN:54,_ZN5intel4hexl35EltwiseMultModAVX512DQIntLoopUnrollILi57ELi1ELi1024EEEvPDv8_xPKS2_S5_S2_S2_S2_
FN:312,_ZN5intel4hexl36EltwiseMultModAVX512DQIntLoopDefaultILi50ELi1EEEvPDv8_xPKS2_S5_S2_S2_S2_m
FN:312,_ZN5intel4hexl36EltwiseMultModAVX512DQIntLoopDefaultILi57ELi1EEEvPDv8_xPKS2_S5_S2_S2_S2_m
FN:312,_ZN5intel4hexl36EltwiseMultModAVX512DQIntLoopDefaultILi51ELi1EEEvPDv8_xPKS2_S5_S2_S2_S2_m
FN:312,_ZN5intel4hexl36EltwiseMultModAVX512DQIntLoopDefaultILi60ELi4EEEvPDv8_xPKS2_S5_S2_S2_S2_m
FN:312,_ZN5intel4hexl36EltwiseMultModAVX512DQIntLoopDefaultILi59ELi4EEEvPDv8_xPKS2_S5_S2_S2_S2_m
FN:312,_ZN5intel4hexl36EltwiseMultModAVX512DQIntLoopDefaultILi55ELi1EEEvPDv8_xPKS2_S5_S2_S2_S2_m
FN:312,_ZN5intel4hexl36EltwiseMultModAVX512DQIntLoopDefaultILi62ELi4EEEvPDv8_xPKS2_S5_S2_S2_S2_m
FN:312,_ZN5intel4hexl36EltwiseMultModAVX512DQIntLoopDefaultILi61ELi2EEEvPDv8_xPKS2_S5_S2_S2_S2_m
FN:312,_ZN5intel4hexl36EltwiseMultModAVX512DQIntLoopDefaultILi60ELi1EEEvPDv8_xPKS2_S5_S2_S2_S2_m
FN:312,_ZN5intel4hexl36EltwiseMultModAVX512DQIntLoopDefaultILi62ELi2EEEvPDv8_xPKS2_S5_S2_S2_S2_m
FN:312,_ZN5intel4hexl36EltwiseMultModAVX512DQIntLoopDefaultILi54ELi1EEEvPDv8_xPKS2_S5_S2_S2_S2_m
FN:312,_ZN5intel4hexl36EltwiseMultModAVX512DQIntLoopDefaultILi53ELi1EEEvPDv8_xPKS2_S5_S2_S2_S2_m
FN:312,_ZN5intel4hexl36EltwiseMultModAVX512DQIntLoopDefaultILi60ELi2EEEvPDv8_xPKS2_S5_S2_S2_S2_m
FN:312,_ZN5intel4hexl36EltwiseMultModAVX512DQIntLoopDefaultILi61ELi4EEEvPDv8_xPKS2_S5_S2_S2_S2_m
FN:312,_ZN5intel4hexl36EltwiseMultModAVX512DQIntLoopDefaultILi52ELi1EEEvPDv8_xPKS2_S5_S2_S2_S2_m
FN:312,_ZN5intel4hexl36EltwiseMultModAVX512DQIntLoopDefaultILi61ELi1EEEvPDv8_xPKS2_S5_S2_S2_S2_m
FN:312,_ZN5intel4hexl36EltwiseMultModAVX512DQIntLoopDefaultILi59ELi2EEEvPDv8_xPKS2_S5_S2_S2_S2_m
FN:312,_ZN5intel4hexl36EltwiseMultModAVX512DQIntLoopDefaultILi56ELi1EEEvPDv8_xPKS2_S5_S2_S2_S2_m
FN:312,_ZN5intel4hexl36EltwiseMultModAVX512DQIntLoopDefaultILi59ELi1EEEvPDv8_xPKS2_S5_S2_S2_S2_m
FN:312,_ZN5intel4hexl36EltwiseMultModAVX512DQIntLoopDefaultILi58ELi1EEEvPDv8_xPKS2_S5_S2_S2_S2_m
FN:356,_ZN5intel4hexl36EltwiseMultModAVX512DQIntLoopDefaultILi2EEEvPDv8_xPKS2_S5_S2_S2_S2_mm
FN:356,_ZN5intel4hexl36EltwiseMultModAVX512DQIntLoopDefaultILi4EEEvPDv8_xPKS2_S5_S2_S2_S2_mm
FN:356,_ZN5intel4hexl36EltwiseMultModAVX512DQIntLoopDefaultILi1EEEvPDv8_xPKS2_S5_S2_S2_S2_mm
FN:401,_ZN5intel4hexl29EltwiseMultModAVX512DQIntLoopILi60ELi1EEEvPDv8_xPKS2_S5_S2_S2_S2_m
FN:401,_ZN5intel4hexl29EltwiseMultModAVX512DQIntLoopILi61ELi1EEEvPDv8_xPKS2_S5_S2_S2_S2_m
FN:401,_ZN5intel4hexl29EltwiseMultModAVX512DQIntLoopILi51ELi1EEEvPDv8_xPKS2_S5_S2_S2_S2_m
FN:401,_ZN5intel4hexl29EltwiseMultModAVX512DQIntLoopILi57ELi1EEEvPDv8_xPKS2_S5_S2_S2_S2_m
FN:401,_ZN5intel4hexl29EltwiseMultModAVX512DQIntLoopILi59ELi4EEEvPDv8_xPKS2_S5_S2_S2_S2_m
FN:401,_ZN5intel4hexl29EltwiseMultModAVX512DQIntLoopILi62ELi2EEEvPDv8_xPKS2_S5_S2_S2_S2_m
FN:401,_ZN5intel4hexl29EltwiseMultModAVX512DQIntLoopILi50ELi1EEEvPDv8_xPKS2_S5_S2_S2_S2_m
FN:401,_ZN5intel4hexl29EltwiseMultModAVX512DQIntLoopILi59ELi2EEEvPDv8_xPKS2_S5_S2_S2_S2_m
FN:401,_ZN5intel4hexl29EltwiseMultModAVX512DQIntLoopILi60ELi4EEEvPDv8_xPKS2_S5_S2_S2_S2_m
FN:401,_ZN5intel4hexl29EltwiseMultModAVX512DQIntLoopILi62ELi4EEEvPDv8_xPKS2_S5_S2_S2_S2_m
FN:401,_ZN5intel4hexl29EltwiseMultModAVX512DQIntLoopILi58ELi1EEEvPDv8_xPKS2_S5_S2_S2_S2_m
FN:401,_ZN5intel4hexl29EltwiseMultModAVX512DQIntLoopILi54ELi1EEEvPDv8_xPKS2_S5_S2_S2_S2_m
FN:401,_ZN5intel4hexl29EltwiseMultModAVX512DQIntLoopILi59ELi1EEEvPDv8_xPKS2_S5_S2_S2_S2_m
FN:401,_ZN5intel4hexl29EltwiseMultModAVX512DQIntLoopILi55ELi1EEEvPDv8_xPKS2_S5_S2_S2_S2_m
FN:401,_ZN5intel4hexl29EltwiseMultModAVX512DQIntLoopILi53ELi1EEEvPDv8_xPKS2_S5_S2_S2_S2_m
FN:401,_ZN5intel4hexl29EltwiseMultModAVX512DQIntLoopILi60ELi2EEEvPDv8_xPKS2_S5_S2_S2_S2_m
FN:401,_ZN5intel4hexl29EltwiseMultModAVX512DQIntLoopILi56ELi1EEEvPDv8_xPKS2_S5_S2_S2_S2_m
FN:401,_ZN5intel4hexl29EltwiseMultModAVX512DQIntLoopILi61ELi4EEEvPDv8_xPKS2_S5_S2_S2_S2_m
FN:401,_ZN5intel4hexl29EltwiseMultModAVX512DQIntLoopILi52ELi1EEEvPDv8_xPKS2_S5_S2_S2_S2_m
FN:401,_ZN5intel4hexl29EltwiseMultModAVX512DQIntLoopILi61ELi2EEEvPDv8_xPKS2_S5_S2_S2_S2_m
FN:460,_ZN5intel4hexl25EltwiseMultModAVX512DQIntILi4EEEvPmPKmS4_mm
FN:460,_ZN5intel4hexl25EltwiseMultModAVX512DQIntILi1EEEvPmPKmS4_mm
FN:460,_ZN5intel4hexl25EltwiseMultModAVX512DQIntILi2EEEvPmPKmS4_mm
FN:551,_ZN5intel4hexl36EltwiseMultModAVX512FloatLoopDefaultILi2EEEvPDv8_xPKS2_S5_Dv8_dS6_S2_S2_m
FN:551,_ZN5intel4hexl36EltwiseMultModAVX512FloatLoopDefaultILi4EEEvPDv8_xPKS2_S5_Dv8_dS6_S2_S2_m
FN:551,_ZN5intel4hexl36EltwiseMultModAVX512FloatLoopDefaultILi1EEEvPDv8_xPKS2_S5_Dv8_dS6_S2_S2_m
FN:593,_ZN5intel4hexl35EltwiseMultModAVX512FloatLoopUnrollILi1ELi4096EEEvPDv8_xPKS2_S5_Dv8_dS6_S2_S2_
FN:593,_ZN5intel4hexl35EltwiseMultModAVX512FloatLoopUnrollILi2ELi8192EEEvPDv8_xPKS2_S5_Dv8_dS6_S2_S2_
FN:593,_ZN5intel4hexl35EltwiseMultModAVX512FloatLoopUnrollILi2ELi16384EEEvPDv8_xPKS2_S5_Dv8_dS6_S2_S2_
FN:593,_ZN5intel4hexl35EltwiseMultModAVX512FloatLoopUnrollILi2ELi4096EEEvPDv8_xPKS2_S5_Dv8_dS6_S2_S2_
FN:593,_ZN5intel4hexl35EltwiseMultModAVX512FloatLoopUnrollILi1ELi16384EEEvPDv8_xPKS2_S5_Dv8_dS6_S2_S2_
FN:593,_ZN5intel4hexl35EltwiseMultModAVX512FloatLoopUnrollILi4ELi8192EEEvPDv8_xPKS2_S5_Dv8_dS6_S2_S2_
FN:593,_ZN5intel4hexl35EltwiseMultModAVX512FloatLoopUnrollILi2ELi2048EEEvPDv8_xPKS2_S5_Dv8_dS6_S2_S2_
FN:593,_ZN5intel4hexl35EltwiseMultModAVX512FloatLoopUnrollILi4ELi2048EEEvPDv8_xPKS2_S5_Dv8_dS6_S2_S2_
FN:593,_ZN5intel4hexl35EltwiseMultModAVX512FloatLoopUnrollILi4ELi16384EEEvPDv8_xPKS2_S5_Dv8_dS6_S2_S2_
FN:593,_ZN5intel4hexl35EltwiseMultModAVX512FloatLoopUnrollILi1ELi2048EEEvPDv8_xPKS2_S5_Dv8_dS6_S2_S2_
FN:593,_ZN5intel4hexl35EltwiseMultModAVX512FloatLoopUnrollILi4ELi4096EEEvPDv8_xPKS2_S5_Dv8_dS6_S2_S2_
FN:593,_ZN5intel4hexl35EltwiseMultModAVX512FloatLoopUnrollILi1ELi32768EEEvPDv8_xPKS2_S5_Dv8_dS6_S2_S2_
FN:593,_ZN5intel4hexl35EltwiseMultModAVX512FloatLoopUnrollILi4ELi1024EEEvPDv8_xPKS2_S5_Dv8_dS6_S2_S2_
FN:593,_ZN5intel4hexl35EltwiseMultModAVX512FloatLoopUnrollILi2ELi1024EEEvPDv8_xPKS2_S5_Dv8_dS6_S2_S2_
FN:593,_ZN5intel4hexl35EltwiseMultModAVX512FloatLoopUnrollILi4ELi32768EEEvPDv8_xPKS2_S5_Dv8_dS6_S2_S2_
FN:593,_ZN5intel4hexl35EltwiseMultModAVX512FloatLoopUnrollILi1ELi1024EEEvPDv8_xPKS2_S5_Dv8_dS6_S2_S2_
FN:593,_ZN5intel4hexl35EltwiseMultModAVX512FloatLoopUnrollILi1ELi8192EEEvPDv8_xPKS2_S5_Dv8_dS6_S2_S2_
FN:593,_ZN5intel4hexl35EltwiseMultModAVX512FloatLoopUnrollILi2ELi32768EEEvPDv8_xPKS2_S5_Dv8_dS6_S2_S2_
FN:704,_ZN5intel4hexl29EltwiseMultModAVX512FloatLoopILi4EEEvPDv8_xPKS2_S5_Dv8_dS6_S2_S2_m
FN:704,_ZN5intel4hexl29EltwiseMultModAVX512FloatLoopILi1EEEvPDv8_xPKS2_S5_Dv8_dS6_S2_S2_m
FN:704,_ZN5intel4hexl29EltwiseMultModAVX512FloatLoopILi2EEEvPDv8_xPKS2_S5_Dv8_dS6_S2_S2_m
FN:758,_ZN5intel4hexl25EltwiseMultModAVX512FloatILi2EEEvPmPKmS4_mm
FN:758,_ZN5intel4hexl25EltwiseMultModAVX512FloatILi4EEEvPmPKmS4_mm
FN:758,_ZN5intel4hexl25EltwiseMultModAVX512FloatILi1EEEvPmPKmS4_mm
FNDA:360,_ZN5intel4hexl29EltwiseMultModAVX512DQIntLoopILi58ELi1EEEvPDv8_xPKS2_S5_S2_S2_S2_m
FNDA:480,_ZN5intel4hexl35EltwiseMultModAVX512FloatLoopUnrollILi1ELi2048EEEvPDv8_xPKS2_S5_Dv8_dS6_S2_S2_
FNDA:0,_ZN5intel4hexl29EltwiseMultModAVX512DQIntLoopILi62ELi4EEEvPDv8_xPKS2_S5_S2_S2_S2_m
FNDA:20,_ZN5intel4hexl35EltwiseMultModAVX512DQIntLoopUnrollILi61ELi1ELi2048EEEvPDv8_xPKS2_S5_S2_S2_S2_
FNDA:60,_ZN5intel4hexl35EltwiseMultModAVX512DQIntLoopUnrollILi55ELi1ELi16384EEEvPDv8_xPKS2_S5_S2_S2_S2_
FNDA:60,_ZN5intel4hexl35EltwiseMultModAVX512DQIntLoopUnrollILi58ELi1ELi32768EEEvPDv8_xPKS2_S5_S2_S2_S2_
FNDA:0,_ZN5intel4hexl35EltwiseMultModAVX512DQIntLoopUnrollILi62ELi4ELi1024EEEvPDv8_xPKS2_S5_S2_S2_S2_
FNDA:61,_ZN5intel4hexl35EltwiseMultModAVX512DQIntLoopUnrollILi54ELi1ELi8192EEEvPDv8_xPKS2_S5_S2_S2_S2_
FNDA:20,_ZN5intel4hexl35EltwiseMultModAVX512DQIntLoopUnrollILi61ELi2ELi4096EEEvPDv8_xPKS2_S5_S2_S2_S2_
FNDA:366,_ZN5intel4hexl29EltwiseMultModAVX512DQIntLoopILi54ELi1EEEvPDv8_xPKS2_S5_S2_S2_S2_m
FNDA:1,_ZN5intel4hexl36EltwiseMultModAVX512DQIntLoopDefaultILi61ELi2EEEvPDv8_xPKS2_S5_S2_S2_S2_m
FNDA:20,_ZN5intel4hexl35EltwiseMultModAVX512DQIntLoopUnrollILi50ELi1ELi1024EEEvPDv8_xPKS2_S5_S2_S2_S2_
FNDA:60,_ZN5intel4hexl35EltwiseMultModAVX512DQIntLoopUnrollILi58ELi1ELi2048EEEvPDv8_xPKS2_S5_S2_S2_S2_
FNDA:61,_ZN5intel4hexl35EltwiseMultModAVX512DQIntLoopUnrollILi54ELi1ELi4096EEEvPDv8_xPKS2_S5_S2_S2_S2_
FNDA:20,_ZN5intel4hexl35EltwiseMultModAVX512DQIntLoopUnrollILi50ELi1ELi2048EEEvPDv8_xPKS2_S5_S2_S2_S2_
FNDA:40,_ZN5intel4hexl35EltwiseMultModAVX512DQIntLoopUnrollILi59ELi1ELi1024EEEvPDv8_xPKS2_S5_S2_S2_S2_
FNDA:60,_ZN5intel4hexl35EltwiseMultModAVX512DQIntLoopUnrollILi52ELi1ELi32768EEEvPDv8_xPKS2_S5_S2_S2_S2_
FNDA:20,_ZN5intel4hexl35EltwiseMultModAVX512DQIntLoopUnrollILi61ELi1ELi8192EEEvPDv8_xPKS2_S5_S2_S2_S2_
FNDA:121,_ZN5intel4hexl29EltwiseMultModAVX512DQIntLoopILi50ELi1EEEvPDv8_xPKS2_S5_S2_S2_S2_m
FNDA:20,_ZN5intel4hexl35EltwiseMultModAVX512DQIntLoopUnrollILi61ELi2ELi2048EEEvPDv8_xPKS2_S5_S2_S2_S2_
FNDA:40,_ZN5intel4hexl35EltwiseMultModAVX512DQIntLoopUnrollILi59ELi1ELi4096EEEvPDv8_xPKS2_S5_S2_S2_S2_
FNDA:20,_ZN5intel4hexl35EltwiseMultModAVX512DQIntLoopUnrollILi61ELi4ELi16384EEEvPDv8_xPKS2_S5_S2_S2_S2_
FNDA:40,_ZN5intel4hexl35EltwiseMultModAVX512DQIntLoopUnrollILi59ELi1ELi16384EEEvPDv8_xPKS2_S5_S2_S2_S2_
FNDA:0,_ZN5intel4hexl29EltwiseMultModAVX512DQIntLoopILi59ELi2EEEvPDv8_xPKS2_S5_S2_S2_S2_m
FNDA:20,_ZN5intel4hexl35EltwiseMultModAVX512DQIntLoopUnrollILi61ELi1ELi4096EEEvPDv8_xPKS2_S5_S2_S2_S2_
FNDA:0,_ZN5intel4hexl35EltwiseMultModAVX512DQIntLoopUnrollILi62ELi4ELi2048EEEvPDv8_xPKS2_S5_S2_S2_S2_
FNDA:0,_ZN5intel4hexl36EltwiseMultModAVX512DQIntLoopDefaultILi62ELi4EEEvPDv8_xPKS2_S5_S2_S2_S2_m
FNDA:20,_ZN5intel4hexl35EltwiseMultModAVX512DQIntLoopUnrollILi61ELi2ELi1024EEEvPDv8_xPKS2_S5_S2_S2_S2_
FNDA:60,_ZN5intel4hexl35EltwiseMultModAVX512DQIntLoopUnrollILi53ELi1ELi8192EEEvPDv8_xPKS2_S5_S2_S2_S2_
FNDA:61,_ZN5intel4hexl35EltwiseMultModAVX512DQIntLoopUnrollILi54ELi1ELi1024EEEvPDv8_xPKS2_S5_S2_S2_S2_
FNDA:20,_ZN5intel4hexl35EltwiseMultModAVX512DQIntLoopUnrollILi61ELi1ELi16384EEEvPDv8_xPKS2_S5_S2_S2_S2_
FNDA:120,_ZN5intel4hexl29EltwiseMultModAVX512DQIntLoopILi60ELi4EEEvPDv8_xPKS2_S5_S2_S2_S2_m
FNDA:60,_ZN5intel4hexl35EltwiseMultModAVX512DQIntLoopUnrollILi51ELi1ELi32768EEEvPDv8_xPKS2_S5_S2_S2_S2_
FNDA:60,_ZN5intel4hexl35EltwiseMultModAVX512DQIntLoopUnrollILi56ELi1ELi1024EEEvPDv8_xPKS2_S5_S2_S2_S2_
FNDA:120,_ZN5intel4hexl29EltwiseMultModAVX512DQIntLoopILi59ELi4EEEvPDv8_xPKS2_S5_S2_S2_S2_m
FNDA:2885,_ZN5intel4hexl29EltwiseMultModAVX512FloatLoopILi1EEEvPDv8_xPKS2_S5_Dv8_dS6_S2_S2_m
FNDA:0,_ZN5intel4hexl29EltwiseMultModAVX512DQIntLoopILi62ELi2EEEvPDv8_xPKS2_S5_S2_S2_S2_m
FNDA:61,_ZN5intel4hexl35EltwiseMultModAVX512DQIntLoopUnrollILi54ELi1ELi2048EEEvPDv8_xPKS2_S5_S2_S2_S2_
FNDA:60,_ZN5intel4hexl35EltwiseMultModAVX512DQIntLoopUnrollILi58ELi1ELi8192EEEvPDv8_xPKS2_S5_S2_S2_S2_
FNDA:0,_ZN5intel4hexl35EltwiseMultModAVX512DQIntLoopUnrollILi60ELi2ELi16384EEEvPDv8_xPKS2_S5_S2_S2_S2_
FNDA:60,_ZN5intel4hexl35EltwiseMultModAVX512DQIntLoopUnrollILi51ELi1ELi16384EEEvPDv8_xPKS2_S5_S2_S2_S2_
FNDA:60,_ZN5intel4hexl35EltwiseMultModAVX512DQIntLoopUnrollILi58ELi1ELi16384EEEvPDv8_xPKS2_S5_S2_S2_S2_
FNDA:60,_ZN5intel4hexl35EltwiseMultModAVX512DQIntLoopUnrollILi52ELi1ELi2048EEEvPDv8_xPKS2_S5_S2_S2_S2_
FNDA:0,_ZN5intel4hexl36EltwiseMultModAVX512DQIntLoopDefaultILi59ELi4EEEvPDv8_xPKS2_S5_S2_S2_S2_m
FNDA:60,_ZN5intel4hexl35EltwiseMultModAVX512DQIntLoopUnrollILi55ELi1ELi8192EEEvPDv8_xPKS2_S5_S2_S2_S2_
FNDA:40,_ZN5intel4hexl35EltwiseMultModAVX512DQIntLoopUnrollILi60ELi1ELi2048EEEvPDv8_xPKS2_S5_S2_S2_S2_
FNDA:0,_ZN5intel4hexl36EltwiseMultModAVX512DQIntLoopDefaultILi55ELi1EEEvPDv8_xPKS2_S5_S2_S2_S2_m
FNDA:1205,_ZN5intel4hexl25EltwiseMultModAVX512FloatILi1EEEvPmPKmS4_mm
FNDA:0,_ZN5intel4hexl35EltwiseMultModAVX512DQIntLoopUnrollILi59ELi2ELi4096EEEvPDv8_xPKS2_S5_S2_S2_S2_
FNDA:60,_ZN5intel4hexl35EltwiseMultModAVX512DQIntLoopUnrollILi57ELi1ELi16384EEEvPDv8_xPKS2_S5_S2_S2_S2_
FNDA:0,_ZN5intel4hexl36EltwiseMultModAVX512DQIntLoopDefaultILi2EEEvPDv8_xPKS2_S5_S2_S2_S2_mm
FNDA:0,_ZN5intel4hexl36EltwiseMultModAVX512FloatLoopDefaultILi1EEEvPDv8_xPKS2_S5_Dv8_dS6_S2_S2_m
FNDA:0,_ZN5intel4hexl35EltwiseMultModAVX512DQIntLoopUnrollILi59ELi2ELi32768EEEvPDv8_xPKS2_S5_S2_S2_S2_
FNDA:40,_ZN5intel4hexl35EltwiseMultModAVX512DQIntLoopUnrollILi59ELi1ELi2048EEEvPDv8_xPKS2_S5_S2_S2_S2_
FNDA:20,_ZN5intel4hexl35EltwiseMultModAVX512DQIntLoopUnrollILi61ELi4ELi32768EEEvPDv8_xPKS2_S5_S2_S2_S2_
FNDA:1328,_ZN5intel4hexl25EltwiseMultModAVX512DQIntILi1EEEvPmPKmS4_mm
FNDA:0,_ZN5intel4hexl35EltwiseMultModAVX512DQIntLoopUnrollILi60ELi2ELi4096EEEvPDv8_xPKS2_S5_S2_S2_S2_
FNDA:60,_ZN5intel4hexl35EltwiseMultModAVX512DQIntLoopUnrollILi56ELi1ELi2048EEEvPDv8_xPKS2_S5_S2_S2_S2_
FNDA:360,_ZN5intel4hexl29EltwiseMultModAVX512DQIntLoopILi51ELi1EEEvPDv8_xPKS2_S5_S2_S2_S2_m
FNDA:360,_ZN5intel4hexl29EltwiseMultModAVX512DQIntLoopILi57ELi1EEEvPDv8_xPKS2_S5_S2_S2_S2_m
FNDA:0,_ZN5intel4hexl35EltwiseMultModAVX512DQIntLoopUnrollILi60ELi2ELi2048EEEvPDv8_xPKS2_S5_S2_S2_S2_
FNDA:0,_ZN5intel4hexl36EltwiseMultModAVX512DQIntLoopDefaultILi60ELi4EEEvPDv8_xPKS2_S5_S2_S2_S2_m
FNDA:30,_ZN5intel4hexl35EltwiseMultModAVX512FloatLoopUnrollILi2ELi2048EEEvPDv8_xPKS2_S5_Dv8_dS6_S2_S2_
FNDA:60,_ZN5intel4hexl35EltwiseMultModAVX512FloatLoopUnrollILi4ELi2048EEEvPDv8_xPKS2_S5_Dv8_dS6_S2_S2_
FNDA:60,_ZN5intel4hexl35EltwiseMultModAVX512DQIntLoopUnrollILi51ELi1ELi8192EEEvPDv8_xPKS2_S5_S2_S2_S2_
FNDA:0,_ZN5intel4hexl36EltwiseMultModAVX512DQIntLoopDefaultILi51ELi1EEEvPDv8_xPKS2_S5_S2_S2_S2_m
FNDA:60,_ZN5intel4hexl35EltwiseMultModAVX512FloatLoopUnrollILi4ELi8192EEEvPDv8_xPKS2_S5_Dv8_dS6_S2_S2_
FNDA:60,_ZN5intel4hexl35EltwiseMultModAVX512DQIntLoopUnrollILi51ELi1ELi2048EEEvPDv8_xPKS2_S5_S2_S2_S2_
FNDA:120,_ZN5intel4hexl29EltwiseMultModAVX512DQIntLoopILi61ELi1EEEvPDv8_xPKS2_S5_S2_S2_S2_m
FNDA:1,_ZN5intel4hexl36EltwiseMultModAVX512FloatLoopDefaultILi4EEEvPDv8_xPKS2_S5_Dv8_dS6_S2_S2_m
FNDA:1441,_ZN5intel4hexl25EltwiseMultModAVX512DQIntILi4EEEvPmPKmS4_mm
FNDA:60,_ZN5intel4hexl35EltwiseMultModAVX512FloatLoopUnrollILi4ELi16384EEEvPDv8_xPKS2_S5_Dv8_dS6_S2_S2_
FNDA:1081,_ZN5intel4hexl25EltwiseMultModAVX512FloatILi4EEEvPmPKmS4_mm
FNDA:30,_ZN5intel4hexl35EltwiseMultModAVX512FloatLoopUnrollILi2ELi16384EEEvPDv8_xPKS2_S5_Dv8_dS6_S2_S2_
FNDA:361,_ZN5intel4hexl29EltwiseMultModAVX512FloatLoopILi4EEEvPDv8_xPKS2_S5_Dv8_dS6_S2_S2_m
FNDA:60,_ZN5intel4hexl35EltwiseMultModAVX512DQIntLoopUnrollILi58ELi1ELi4096EEEvPDv8_xPKS2_S5_S2_S2_S2_
FNDA:30,_ZN5intel4hexl35EltwiseMultModAVX512FloatLoopUnrollILi2ELi4096EEEvPDv8_xPKS2_S5_Dv8_dS6_S2_S2_
FNDA:0,_ZN5intel4hexl36EltwiseMultModAVX512FloatLoopDefaultILi2EEEvPDv8_xPKS2_S5_Dv8_dS6_S2_S2_m
FNDA:20,_ZN5intel4hexl35EltwiseMultModAVX512DQIntLoopUnrollILi50ELi1ELi4096EEEvPDv8_xPKS2_S5_S2_S2_S2_
FNDA:60,_ZN5intel4hexl35EltwiseMultModAVX512DQIntLoopUnrollILi58ELi1ELi1024EEEvPDv8_xPKS2_S5_S2_S2_S2_
FNDA:480,_ZN5intel4hexl35EltwiseMultModAVX512FloatLoopUnrollILi1ELi16384EEEvPDv8_xPKS2_S5_Dv8_dS6_S2_S2_
FNDA:61,_ZN5intel4hexl35EltwiseMultModAVX512DQIntLoopUnrollILi54ELi1ELi32768EEEvPDv8_xPKS2_S5_S2_S2_S2_
FNDA:0,_ZN5intel4hexl35EltwiseMultModAVX512DQIntLoopUnrollILi59ELi2ELi1024EEEvPDv8_xPKS2_S5_S2_S2_S2_
FNDA:0,_ZN5intel4hexl36EltwiseMultModAVX512DQIntLoopDefaultILi57ELi1EEEvPDv8_xPKS2_S5_S2_S2_S2_m
FNDA:20,_ZN5intel4hexl35EltwiseMultModAVX512DQIntLoopUnrollILi60ELi4ELi1024EEEvPDv8_xPKS2_S5_S2_S2_S2_
FNDA:61,_ZN5intel4hexl35EltwiseMultModAVX512DQIntLoopUnrollILi54ELi1ELi16384EEEvPDv8_xPKS2_S5_S2_S2_S2_
FNDA:480,_ZN5intel4hexl35EltwiseMultModAVX512FloatLoopUnrollILi1ELi4096EEEvPDv8_xPKS2_S5_Dv8_dS6_S2_S2_
FNDA:240,_ZN5intel4hexl29EltwiseMultModAVX512DQIntLoopILi60ELi1EEEvPDv8_xPKS2_S5_S2_S2_S2_m
FNDA:40,_ZN5intel4hexl35EltwiseMultModAVX512DQIntLoopUnrollILi60ELi1ELi4096EEEvPDv8_xPKS2_S5_S2_S2_S2_
FNDA:60,_ZN5intel4hexl35EltwiseMultModAVX512DQIntLoopUnrollILi52ELi1ELi4096EEEvPDv8_xPKS2_S5_S2_S2_S2_
FNDA:20,_ZN5intel4hexl35EltwiseMultModAVX512DQIntLoopUnrollILi60ELi4ELi32768EEEvPDv8_xPKS2_S5_S2_S2_S2_
FNDA:1,_ZN5intel4hexl36EltwiseMultModAVX512DQIntLoopDefaultILi50ELi1EEEvPDv8_xPKS2_S5_S2_S2_S2_m
FNDA:20,_ZN5intel4hexl35EltwiseMultModAVX512DQIntLoopUnrollILi61ELi1ELi1024EEEvPDv8_xPKS2_S5_S2_S2_S2_
FNDA:0,_ZN5intel4hexl35EltwiseMultModAVX512DQIntLoopUnrollILi60ELi2ELi1024EEEvPDv8_xPKS2_S5_S2_S2_S2_
FNDA:30,_ZN5intel4hexl35EltwiseMultModAVX512FloatLoopUnrollILi2ELi8192EEEvPDv8_xPKS2_S5_Dv8_dS6_S2_S2_
FNDA:1140,_ZN5intel4hexl25EltwiseMultModAVX512FloatILi2EEEvPmPKmS4_mm
FNDA:60,_ZN5intel4hexl35EltwiseMultModAVX512DQIntLoopUnrollILi56ELi1ELi8192EEEvPDv8_xPKS2_S5_S2_S2_S2_
FNDA:20,_ZN5intel4hexl35EltwiseMultModAVX512DQIntLoopUnrollILi61ELi2ELi32768EEEvPDv8_xPKS2_S5_S2_S2_S2_
FNDA:20,_ZN5intel4hexl35EltwiseMultModAVX512DQIntLoopUnrollILi59ELi4ELi2048EEEvPDv8_xPKS2_S5_S2_S2_S2_
FNDA:40,_ZN5intel4hexl35EltwiseMultModAVX512DQIntLoopUnrollILi59ELi1ELi32768EEEvPDv8_xPKS2_S5_S2_S2_S2_
FNDA:60,_ZN5intel4hexl35EltwiseMultModAVX512DQIntLoopUnrollILi55ELi1ELi1024EEEvPDv8_xPKS2_S5_S2_S2_S2_
FNDA:480,_ZN5intel4hexl35EltwiseMultModAVX512FloatLoopUnrollILi1ELi8192EEEvPDv8_xPKS2_S5_Dv8_dS6_S2_S2_
FNDA:60,_ZN5intel4hexl35EltwiseMultModAVX512DQIntLoopUnrollILi57ELi1ELi1024EEEvPDv8_xPKS2_S5_S2_S2_S2_
FNDA:30,_ZN5intel4hexl35EltwiseMultModAVX512FloatLoopUnrollILi2ELi32768EEEvPDv8_xPKS2_S5_Dv8_dS6_S2_S2_
FNDA:0,_ZN5intel4hexl36EltwiseMultModAVX512DQIntLoopDefaultILi58ELi1EEEvPDv8_xPKS2_S5_S2_S2_S2_m
FNDA:0,_ZN5intel4hexl36EltwiseMultModAVX512DQIntLoopDefaultILi59ELi1EEEvPDv8_xPKS2_S5_S2_S2_S2_m
FNDA:60,_ZN5intel4hexl35EltwiseMultModAVX512DQIntLoopUnrollILi56ELi1ELi16384EEEvPDv8_xPKS2_S5_S2_S2_S2_
FNDA:60,_ZN5intel4hexl35EltwiseMultModAVX512DQIntLoopUnrollILi53ELi1ELi32768EEEvPDv8_xPKS2_S5_S2_S2_S2_
FNDA:20,_ZN5intel4hexl35EltwiseMultModAVX512DQIntLoopUnrollILi59ELi4ELi1024EEEvPDv8_xPKS2_S5_S2_S2_S2_
FNDA:0,_ZN5intel4hexl35EltwiseMultModAVX512DQIntLoopUnrollILi62ELi4ELi16384EEEvPDv8_xPKS2_S5_S2_S2_S2_
FNDA:20,_ZN5intel4hexl35EltwiseMultModAVX512DQIntLoopUnrollILi60ELi4ELi2048EEEvPDv8_xPKS2_S5_S2_S2_S2_
FNDA:20,_ZN5intel4hexl35EltwiseMultModAVX512DQIntLoopUnrollILi61ELi2ELi8192EEEvPDv8_xPKS2_S5_S2_S2_S2_
FNDA:20,_ZN5intel4hexl35EltwiseMultModAVX512DQIntLoopUnrollILi60ELi4ELi8192EEEvPDv8_xPKS2_S5_S2_S2_S2_
FNDA:480,_ZN5intel4hexl35EltwiseMultModAVX512FloatLoopUnrollILi1ELi1024EEEvPDv8_xPKS2_S5_Dv8_dS6_S2_S2_
FNDA:0,_ZN5intel4hexl36EltwiseMultModAVX512DQIntLoopDefaultILi1EEEvPDv8_xPKS2_S5_S2_S2_S2_mm
FNDA:20,_ZN5intel4hexl35EltwiseMultModAVX512DQIntLoopUnrollILi59ELi4ELi32768EEEvPDv8_xPKS2_S5_S2_S2_S2_
FNDA:60,_ZN5intel4hexl35EltwiseMultModAVX512DQIntLoopUnrollILi51ELi1ELi1024EEEvPDv8_xPKS2_S5_S2_S2_S2_
FNDA:60,_ZN5intel4hexl35EltwiseMultModAVX512DQIntLoopUnrollILi53ELi1ELi16384EEEvPDv8_xPKS2_S5_S2_S2_S2_
FNDA:0,_ZN5intel4hexl35EltwiseMultModAVX512DQIntLoopUnrollILi62ELi2ELi1024EEEvPDv8_xPKS2_S5_S2_S2_S2_
FNDA:20,_ZN5intel4hexl35EltwiseMultModAVX512DQIntLoopUnrollILi59ELi4ELi16384EEEvPDv8_xPKS2_S5_S2_S2_S2_
FNDA:1381,_ZN5intel4hexl25EltwiseMultModAVX512DQIntILi2EEEvPmPKmS4_mm
FNDA:0,_ZN5intel4hexl36EltwiseMultModAVX512DQIntLoopDefaultILi59ELi2EEEvPDv8_xPKS2_S5_S2_S2_S2_m
FNDA:20,_ZN5intel4hexl35EltwiseMultModAVX512DQIntLoopUnrollILi61ELi4ELi1024EEEvPDv8_xPKS2_S5_S2_S2_S2_
FNDA:20,_ZN5intel4hexl35EltwiseMultModAVX512DQIntLoopUnrollILi60ELi4ELi4096EEEvPDv8_xPKS2_S5_S2_S2_S2_
FNDA:20,_ZN5intel4hexl35EltwiseMultModAVX512DQIntLoopUnrollILi59ELi4ELi4096EEEvPDv8_xPKS2_S5_S2_S2_S2_
FNDA:362,_ZN5intel4hexl29EltwiseMultModAVX512DQIntLoopILi52ELi1EEEvPDv8_xPKS2_S5_S2_S2_S2_m
FNDA:60,_ZN5intel4hexl35EltwiseMultModAVX512FloatLoopUnrollILi4ELi32768EEEvPDv8_xPKS2_S5_Dv8_dS6_S2_S2_
FNDA:121,_ZN5intel4hexl29EltwiseMultModAVX512DQIntLoopILi61ELi2EEEvPDv8_xPKS2_S5_S2_S2_S2_m
FNDA:20,_ZN5intel4hexl35EltwiseMultModAVX512DQIntLoopUnrollILi50ELi1ELi8192EEEvPDv8_xPKS2_S5_S2_S2_S2_
FNDA:0,_ZN5intel4hexl35EltwiseMultModAVX512DQIntLoopUnrollILi62ELi4ELi8192EEEvPDv8_xPKS2_S5_S2_S2_S2_
FNDA:0,_ZN5intel4hexl36EltwiseMultModAVX512DQIntLoopDefaultILi56ELi1EEEvPDv8_xPKS2_S5_S2_S2_S2_m
FNDA:0,_ZN5intel4hexl35EltwiseMultModAVX512DQIntLoopUnrollILi62ELi2ELi4096EEEvPDv8_xPKS2_S5_S2_S2_S2_
FNDA:60,_ZN5intel4hexl35EltwiseMultModAVX512DQIntLoopUnrollILi57ELi1ELi4096EEEvPDv8_xPKS2_S5_S2_S2_S2_
FNDA:360,_ZN5intel4hexl29EltwiseMultModAVX512DQIntLoopILi56ELi1EEEvPDv8_xPKS2_S5_S2_S2_S2_m
FNDA:0,_ZN5intel4hexl35EltwiseMultModAVX512DQIntLoopUnrollILi60ELi2ELi32768EEEvPDv8_xPKS2_S5_S2_S2_S2_
FNDA:60,_ZN5intel4hexl35EltwiseMultModAVX512DQIntLoopUnrollILi53ELi1ELi4096EEEvPDv8_xPKS2_S5_S2_S2_S2_
FNDA:120,_ZN5intel4hexl29EltwiseMultModAVX512DQIntLoopILi61ELi4EEEvPDv8_xPKS2_S5_S2_S2_S2_m
FNDA:0,_ZN5intel4hexl36EltwiseMultModAVX512DQIntLoopDefaultILi61ELi1EEEvPDv8_xPKS2_S5_S2_S2_S2_m
FNDA:20,_ZN5intel4hexl35EltwiseMultModAVX512DQIntLoopUnrollILi61ELi1ELi32768EEEvPDv8_xPKS2_S5_S2_S2_S2_
FNDA:2,_ZN5intel4hexl36EltwiseMultModAVX512DQIntLoopDefaultILi52ELi1EEEvPDv8_xPKS2_S5_S2_S2_S2_m
FNDA:60,_ZN5intel4hexl35EltwiseMultModAVX512DQIntLoopUnrollILi52ELi1ELi8192EEEvPDv8_xPKS2_S5_S2_S2_S2_
FNDA:20,_ZN5intel4hexl35EltwiseMultModAVX512DQIntLoopUnrollILi59ELi4ELi8192EEEvPDv8_xPKS2_S5_S2_S2_S2_
FNDA:0,_ZN5intel4hexl35EltwiseMultModAVX512DQIntLoopUnrollILi62ELi2ELi16384EEEvPDv8_xPKS2_S5_S2_S2_S2_
FNDA:0,_ZN5intel4hexl36EltwiseMultModAVX512DQIntLoopDefaultILi61ELi4EEEvPDv8_xPKS2_S5_S2_S2_S2_m
FNDA:60,_ZN5intel4hexl35EltwiseMultModAVX512DQIntLoopUnrollILi57ELi1ELi32768EEEvPDv8_xPKS2_S5_S2_S2_S2_
FNDA:0,_ZN5intel4hexl36EltwiseMultModAVX512DQIntLoopDefaultILi60ELi2EEEvPDv8_xPKS2_S5_S2_S2_S2_m
FNDA:0,_ZN5intel4hexl29EltwiseMultModAVX512DQIntLoopILi60ELi2EEEvPDv8_xPKS2_S5_S2_S2_S2_m
FNDA:60,_ZN5intel4hexl35EltwiseMultModAVX512DQIntLoopUnrollILi53ELi1ELi1024EEEvPDv8_xPKS2_S5_S2_S2_S2_
FNDA:40,_ZN5intel4hexl35EltwiseMultModAVX512DQIntLoopUnrollILi60ELi1ELi1024EEEvPDv8_xPKS2_S5_S2_S2_S2_
FNDA:20,_ZN5intel4hexl35EltwiseMultModAVX512DQIntLoopUnrollILi60ELi4ELi16384EEEvPDv8_xPKS2_S5_S2_S2_S2_
FNDA:30,_ZN5intel4hexl35EltwiseMultModAVX512FloatLoopUnrollILi2ELi1024EEEvPDv8_xPKS2_S5_Dv8_dS6_S2_S2_
FNDA:0,_ZN5intel4hexl35EltwiseMultModAVX512DQIntLoopUnrollILi59ELi2ELi8192EEEvPDv8_xPKS2_S5_S2_S2_S2_
FNDA:60,_ZN5intel4hexl35EltwiseMultModAVX512DQIntLoopUnrollILi57ELi1ELi8192EEEvPDv8_xPKS2_S5_S2_S2_S2_
FNDA:0,_ZN5intel4hexl35EltwiseMultModAVX512DQIntLoopUnrollILi62ELi2ELi2048EEEvPDv8_xPKS2_S5_S2_S2_S2_
FNDA:20,_ZN5intel4hexl35EltwiseMultModAVX512DQIntLoopUnrollILi61ELi2ELi16384EEEvPDv8_xPKS2_S5_S2_S2_S2_
FNDA:40,_ZN5intel4hexl35EltwiseMultModAVX512DQIntLoopUnrollILi60ELi1ELi32768EEEvPDv8_xPKS2_S5_S2_S2_S2_
FNDA:20,_ZN5intel4hexl35EltwiseMultModAVX512DQIntLoopUnrollILi61ELi4ELi2048EEEvPDv8_xPKS2_S5_S2_S2_S2_
FNDA:40,_ZN5intel4hexl35EltwiseMultModAVX512DQIntLoopUnrollILi60ELi1ELi16384EEEvPDv8_xPKS2_S5_S2_S2_S2_
FNDA:60,_ZN5intel4hexl35EltwiseMultModAVX512DQIntLoopUnrollILi55ELi1ELi4096EEEvPDv8_xPKS2_S5_S2_S2_S2_
FNDA:0,_ZN5intel4hexl35EltwiseMultModAVX512DQIntLoopUnrollILi59ELi2ELi2048EEEvPDv8_xPKS2_S5_S2_S2_S2_
FNDA:20,_ZN5intel4hexl35EltwiseMultModAVX512DQIntLoopUnrollILi61ELi4ELi8192EEEvPDv8_xPKS2_S5_S2_S2_S2_
FNDA:0,_ZN5intel4hexl35EltwiseMultModAVX512DQIntLoopUnrollILi62ELi4ELi32768EEEvPDv8_xPKS2_S5_S2_S2_S2_
FNDA:40,_ZN5intel4hexl35EltwiseMultModAVX512DQIntLoopUnrollILi60ELi1ELi8192EEEvPDv8_xPKS2_S5_S2_S2_S2_
FNDA:60,_ZN5intel4hexl35EltwiseMultModAVX512DQIntLoopUnrollILi56ELi1ELi4096EEEvPDv8_xPKS2_S5_S2_S2_S2_
FNDA:60,_ZN5intel4hexl35EltwiseMultModAVX512FloatLoopUnrollILi4ELi1024EEEvPDv8_xPKS2_S5_Dv8_dS6_S2_S2_
FNDA:20,_ZN5intel4hexl35EltwiseMultModAVX512DQIntLoopUnrollILi50ELi1ELi16384EEEvPDv8_xPKS2_S5_S2_S2_S2_
FNDA:0,_ZN5intel4hexl36EltwiseMultModAVX512DQIntLoopDefaultILi53ELi1EEEvPDv8_xPKS2_S5_S2_S2_S2_m
FNDA:60,_ZN5intel4hexl35EltwiseMultModAVX512DQIntLoopUnrollILi53ELi1ELi2048EEEvPDv8_xPKS2_S5_S2_S2_S2_
FNDA:0,_ZN5intel4hexl35EltwiseMultModAVX512DQIntLoopUnrollILi62ELi4ELi4096EEEvPDv8_xPKS2_S5_S2_S2_S2_
FNDA:0,_ZN5intel4hexl35EltwiseMultModAVX512DQIntLoopUnrollILi59ELi2ELi16384EEEvPDv8_xPKS2_S5_S2_S2_S2_
FNDA:360,_ZN5intel4hexl29EltwiseMultModAVX512DQIntLoopILi53ELi1EEEvPDv8_xPKS2_S5_S2_S2_S2_m
FNDA:0,_ZN5intel4hexl35EltwiseMultModAVX512DQIntLoopUnrollILi62ELi2ELi8192EEEvPDv8_xPKS2_S5_S2_S2_S2_
FNDA:0,_ZN5intel4hexl36EltwiseMultModAVX512DQIntLoopDefaultILi62ELi2EEEvPDv8_xPKS2_S5_S2_S2_S2_m
FNDA:60,_ZN5intel4hexl35EltwiseMultModAVX512DQIntLoopUnrollILi56ELi1ELi32768EEEvPDv8_xPKS2_S5_S2_S2_S2_
FNDA:60,_ZN5intel4hexl35EltwiseMultModAVX512DQIntLoopUnrollILi55ELi1ELi32768EEEvPDv8_xPKS2_S5_S2_S2_S2_
FNDA:360,_ZN5intel4hexl29EltwiseMultModAVX512DQIntLoopILi55ELi1EEEvPDv8_xPKS2_S5_S2_S2_S2_m
FNDA:60,_ZN5intel4hexl35EltwiseMultModAVX512DQIntLoopUnrollILi52ELi1ELi16384EEEvPDv8_xPKS2_S5_S2_S2_S2_
FNDA:0,_ZN5intel4hexl36EltwiseMultModAVX512DQIntLoopDefaultILi54ELi1EEEvPDv8_xPKS2_S5_S2_S2_S2_m
FNDA:60,_ZN5intel4hexl35EltwiseMultModAVX512DQIntLoopUnrollILi51ELi1ELi4096EEEvPDv8_xPKS2_S5_S2_S2_S2_
FNDA:0,_ZN5intel4hexl35EltwiseMultModAVX512DQIntLoopUnrollILi62ELi2ELi32768EEEvPDv8_xPKS2_S5_S2_S2_S2_
FNDA:480,_ZN5intel4hexl35EltwiseMultModAVX512FloatLoopUnrollILi1ELi32768EEEvPDv8_xPKS2_S5_Dv8_dS6_S2_S2_
FNDA:20,_ZN5intel4hexl35EltwiseMultModAVX512DQIntLoopUnrollILi50ELi1ELi32768EEEvPDv8_xPKS2_S5_S2_S2_S2_
FNDA:60,_ZN5intel4hexl35EltwiseMultModAVX512DQIntLoopUnrollILi52ELi1ELi1024EEEvPDv8_xPKS2_S5_S2_S2_S2_
FNDA:0,_ZN5intel4hexl35EltwiseMultModAVX512DQIntLoopUnrollILi60ELi2ELi8192EEEvPDv8_xPKS2_S5_S2_S2_S2_
FNDA:60,_ZN5intel4hexl35EltwiseMultModAVX512DQIntLoopUnrollILi55ELi1ELi2048EEEvPDv8_xPKS2_S5_S2_S2_S2_
FNDA:60,_ZN5intel4hexl35EltwiseMultModAVX512DQIntLoopUnrollILi57ELi1ELi2048EEEvPDv8_xPKS2_S5_S2_S2_S2_
FNDA:20,_ZN5intel4hexl35EltwiseMultModAVX512DQIntLoopUnrollILi61ELi4ELi4096EEEvPDv8_xPKS2_S5_S2_S2_S2_
FNDA:60,_ZN5intel4hexl35EltwiseMultModAVX512FloatLoopUnrollILi4ELi4096EEEvPDv8_xPKS2_S5_Dv8_dS6_S2_S2_
FNDA:180,_ZN5intel4hexl29EltwiseMultModAVX512FloatLoopILi2EEEvPDv8_xPKS2_S5_Dv8_dS6_S2_S2_m
FNDA:0,_ZN5intel4hexl36EltwiseMultModAVX512DQIntLoopDefaultILi60ELi1EEEvPDv8_xPKS2_S5_S2_S2_S2_m
FNDA:240,_ZN5intel4hexl29EltwiseMultModAVX512DQIntLoopILi59ELi1EEEvPDv8_xPKS2_S5_S2_S2_S2_m
FNDA:40,_ZN5intel4hexl35EltwiseMultModAVX512DQIntLoopUnrollILi59ELi1ELi8192EEEvPDv8_xPKS2_S5_S2_S2_S2_
FNDA:60,_ZN5intel4hexl36EltwiseMultModAVX512DQIntLoopDefaultILi4EEEvPDv8_xPKS2_S5_S2_S2_S2_mm
FNF:193
FNH:144
DA:54,4086
DA:59,4086
DA:60,4086
DA:61,4086
DA:71,347310
DA:72,343224
DA:73,343224
DA:74,343224
DA:75,343224
DA:76,343224
DA:77,343224
DA:78,343224
DA:79,343224
DA:80,343224
DA:81,343224
DA:82,343224
DA:83,343224
DA:84,343224
DA:85,343224
DA:86,343224
DA:87,343224
DA:88,343224
DA:89,343224
DA:90,343224
DA:91,343224
DA:92,343224
DA:93,343224
DA:94,343224
DA:95,343224
DA:96,343224
DA:97,343224
DA:98,343224
DA:99,343224
DA:100,343224
DA:101,343224
DA:102,343224
DA:103,343224
DA:105,343224
DA:107,343224
DA:109,343224
DA:111,343224
DA:113,343224
DA:115,343224
DA:117,343224
DA:119,343224
DA:121,343224
DA:123,343224
DA:125,343224
DA:127,343224
DA:129,343224
DA:131,343224
DA:133,343224
DA:135,343224
DA:138,343224
DA:140,343224
DA:142,343224
DA:144,343224
DA:146,343224
DA:148,343224
DA:150,343224
DA:152,343224
DA:154,343224
DA:156,343224
DA:158,343224
DA:160,343224
DA:162,343224
DA:164,343224
DA:166,343224
DA:168,343224
DA:171,343224
DA:172,343224
DA:173,343224
DA:174,343224
DA:175,343224
DA:176,343224
DA:177,343224
DA:178,343224
DA:179,343224
DA:180,343224
DA:181,343224
DA:182,343224
DA:183,343224
DA:184,343224
DA:185,343224
DA:186,343224
DA:188,343224
DA:189,343224
DA:190,343224
DA:191,343224
DA:192,343224
DA:193,343224
DA:194,343224
DA:195,343224
DA:196,343224
DA:197,343224
DA:198,343224
DA:199,343224
DA:200,343224
DA:201,343224
DA:202,343224
DA:203,343224
DA:205,343224
DA:206,343224
DA:207,343224
DA:208,343224
DA:209,343224
DA:210,343224
DA:211,343224
DA:212,343224
DA:213,343224
DA:214,343224
DA:215,343224
DA:216,343224
DA:217,343224
DA:218,343224
DA:219,343224
DA:220,343224
DA:222,343224
DA:223,343224
DA:224,343224
DA:225,343224
DA:226,343224
DA:227,343224
DA:228,343224
DA:229,343224
DA:230,343224
DA:231,343224
DA:232,343224
DA:233,343224
DA:234,343224
DA:235,343224
DA:236,343224
DA:237,343224
DA:239,343224
DA:240,343224
DA:241,343224
DA:242,343224
DA:243,343224
DA:244,343224
DA:245,343224
DA:246,343224
DA:247,343224
DA:248,343224
DA:249,343224
DA:250,343224
DA:251,343224
DA:252,343224
DA:253,343224
DA:254,343224
DA:256,343224
DA:257,343224
DA:258,343224
DA:259,343224
DA:260,343224
DA:261,343224
DA:262,343224
DA:263,343224
DA:264,343224
DA:265,343224
DA:266,343224
DA:267,343224
DA:268,343224
DA:269,343224
DA:270,343224
DA:271,343224
DA:273,343224
DA:274,343224
DA:276,343224
DA:277,343224
DA:278,343224
DA:279,343224
DA:280,343224
DA:281,343224
DA:282,343224
DA:283,343224
DA:284,343224
DA:285,343224
DA:286,343224
DA:287,343224
DA:288,343224
DA:290,343224
DA:291,343224
DA:292,343224
DA:293,343224
DA:294,343224
DA:295,343224
DA:296,343224
DA:297,343224
DA:298,343224
DA:299,343224
DA:300,343224
DA:301,343224
DA:302,343224
DA:303,343224
DA:304,343224
DA:305,343224
DA:307,4086
DA:312,4
DA:320,8
DA:321,4
DA:322,4
DA:324,4
DA:327,4
DA:330,4
DA:331,4
DA:333,4
DA:337,4
DA:338,4
DA:340,4
DA:344,4
DA:345,4
DA:347,4
DA:348,4
DA:349,4
DA:351,4
DA:356,60
DA:365,80700
DA:366,80640
DA:367,80640
DA:369,80640
DA:372,80640
DA:375,80640
DA:376,80640
DA:378,161280
DA:384,80640
DA:385,80640
DA:387,80640
DA:391,80640
DA:392,80640
DA:394,80640
DA:395,80640
DA:396,80640
DA:398,60
DA:401,4090
DA:406,4090
DA:407,681
DA:408,681
DA:411,681
DA:413,681
DA:414,681
DA:417,681
DA:419,681
DA:420,681
DA:423,681
DA:425,681
DA:426,681
DA:429,681
DA:431,681
DA:432,681
DA:435,681
DA:437,681
DA:438,681
DA:441,681
DA:443,4
DA:444,4
DA:448,4090
DA:460,4150
DA:475,4150
DA:476,4150
DA:477,3
DA:479,3
DA:480,3
DA:481,3
DA:482,3
DA:486,4150
DA:487,4150
DA:489,4150
DA:491,4150
DA:492,4150
DA:493,4150
DA:494,4150
DA:495,4150
DA:496,4150
DA:504,4150
DA:506,4150
DA:510,481
DA:511,120
DA:512,120
DA:513,241
DA:514,0
DA:522,3669
DA:525,121
DA:526,360
DA:527,362
DA:528,360
DA:529,366
DA:530,360
DA:531,360
DA:532,360
DA:533,360
DA:534,240
DA:535,240
DA:536,120
DA:537,60
DA:538,60
DA:545,4150
DA:551,6
DA:557,6
DA:560,8
DA:561,2
DA:562,2
DA:565,2
DA:566,2
DA:569,2
DA:570,2
DA:572,2
DA:574,2
DA:575,2
DA:576,2
DA:577,2
DA:578,2
DA:579,2
DA:580,2
DA:582,2
DA:584,2
DA:586,2
DA:587,2
DA:588,2
DA:590,1
DA:593,3420
DA:596,3420
DA:597,3420
DA:598,3420
DA:606,3420
DA:609,1152540
DA:610,1149120
DA:611,1149120
DA:612,1149120
DA:613,1149120
DA:615,1149120
DA:616,1149120
DA:617,1149120
DA:618,1149120
DA:620,1149120
DA:622,1149120
DA:624,1149120
DA:626,1149120
DA:629,1149120
DA:631,1149120
DA:633,1149120
DA:635,1149120
DA:638,1149120
DA:639,1149120
DA:640,1149120
DA:641,1149120
DA:643,1149120
DA:644,1149120
DA:645,1149120
DA:646,1149120
DA:648,1149120
DA:649,1149120
DA:650,1149120
DA:651,1149120
DA:654,1149120
DA:655,1149120
DA:656,1149120
DA:657,1149120
DA:660,1149120
DA:661,1149120
DA:662,1149120
DA:663,1149120
DA:666,1149120
DA:667,1149120
DA:668,1149120
DA:669,1149120
DA:671,1149120
DA:672,1149120
DA:673,1149120
DA:674,1149120
DA:676,1149120
DA:677,1149120
DA:678,1149120
DA:679,1149120
DA:681,1149120
DA:682,1149120
DA:683,1149120
DA:684,1149120
DA:686,1149120
DA:687,1149120
DA:688,1149120
DA:689,1149120
DA:691,1149120
DA:692,1149120
DA:693,1149120
DA:694,1149120
DA:696,1149120
DA:697,1149120
DA:698,1149120
DA:699,1149120
DA:701,3420
DA:704,3426
DA:710,3426
DA:711,570
DA:712,570
DA:715,570
DA:717,570
DA:718,570
DA:721,570
DA:723,570
DA:724,570
DA:727,570
DA:729,570
DA:730,570
DA:733,570
DA:735,570
DA:736,570
DA:739,570
DA:741,570
DA:742,570
DA:745,570
DA:747,6
DA:748,2886
DA:752,3426
DA:758,3426
DA:769,3426
DA:770,3426
DA:771,5
DA:773,5
DA:774,5
DA:775,5
DA:776,5
DA:778,3426
DA:779,3426
DA:780,3426
DA:784,3426
DA:786,3426
DA:788,3426
DA:789,3426
DA:790,3426
DA:796,3426
DA:797,2221
DA:798,3426
DA:799,2885
DA:802,541
DA:808,3426
LF:435
LH:434
end_of_record
TN:
SF:/home/fboemer/repos/DBIO/intel-hexl/hexl/eltwise/eltwise-mult-mod-avx512ifma.cpp
FN:37,_ZN5intel4hexl37EltwiseMultModAVX512IFMAIntLoopUnrollILi49ELi2ELi4096EEEvPDv8_xPKS2_S5_S2_S2_S2_S2_
FN:37,_ZN5intel4hexl37EltwiseMultModAVX512IFMAIntLoopUnrollILi39ELi1ELi4096EEEvPDv8_xPKS2_S5_S2_S2_S2_S2_
FN:37,_ZN5intel4hexl37EltwiseMultModAVX512IFMAIntLoopUnrollILi40ELi1ELi32768EEEvPDv8_xPKS2_S5_S2_S2_S2_S2_
FN:37,_ZN5intel4hexl37EltwiseMultModAVX512IFMAIntLoopUnrollILi36ELi1ELi1024EEEvPDv8_xPKS2_S5_S2_S2_S2_S2_
FN:37,_ZN5intel4hexl37EltwiseMultModAVX512IFMAIntLoopUnrollILi27ELi1ELi4096EEEvPDv8_xPKS2_S5_S2_S2_S2_S2_
FN:37,_ZN5intel4hexl37EltwiseMultModAVX512IFMAIntLoopUnrollILi20ELi1ELi1024EEEvPDv8_xPKS2_S5_S2_S2_S2_S2_
FN:37,_ZN5intel4hexl37EltwiseMultModAVX512IFMAIntLoopUnrollILi15ELi1ELi32768EEEvPDv8_xPKS2_S5_S2_S2_S2_S2_
FN:37,_ZN5intel4hexl37EltwiseMultModAVX512IFMAIntLoopUnrollILi47ELi2ELi32768EEEvPDv8_xPKS2_S5_S2_S2_S2_S2_
FN:37,_ZN5intel4hexl37EltwiseMultModAVX512IFMAIntLoopUnrollILi50ELi1ELi8192EEEvPDv8_xPKS2_S5_S2_S2_S2_S2_
FN:37,_ZN5intel4hexl37EltwiseMultModAVX512IFMAIntLoopUnrollILi49ELi1ELi16384EEEvPDv8_xPKS2_S5_S2_S2_S2_S2_
FN:37,_ZN5intel4hexl37EltwiseMultModAVX512IFMAIntLoopUnrollILi31ELi1ELi16384EEEvPDv8_xPKS2_S5_S2_S2_S2_S2_
FN:37,_ZN5intel4hexl37EltwiseMultModAVX512IFMAIntLoopUnrollILi50ELi4ELi2048EEEvPDv8_xPKS2_S5_S2_S2_S2_S2_
FN:37,_ZN5intel4hexl37EltwiseMultModAVX512IFMAIntLoopUnrollILi47ELi2ELi1024EEEvPDv8_xPKS2_S5_S2_S2_S2_S2_
FN:37,_ZN5intel4hexl37EltwiseMultModAVX512IFMAIntLoopUnrollILi23ELi1ELi2048EEEvPDv8_xPKS2_S5_S2_S2_S2_S2_
FN:37,_ZN5intel4hexl37EltwiseMultModAVX512IFMAIntLoopUnrollILi40ELi1ELi8192EEEvPDv8_xPKS2_S5_S2_S2_S2_S2_
FN:37,_ZN5intel4hexl37EltwiseMultModAVX512IFMAIntLoopUnrollILi24ELi1ELi16384EEEvPDv8_xPKS2_S5_S2_S2_S2_S2_
FN:37,_ZN5intel4hexl37EltwiseMultModAVX512IFMAIntLoopUnrollILi48ELi2ELi1024EEEvPDv8_xPKS2_S5_S2_S2_S2_S2_
FN:37,_ZN5intel4hexl37EltwiseMultModAVX512IFMAIntLoopUnrollILi37ELi1ELi32768EEEvPDv8_xPKS2_S5_S2_S2_S2_S2_
FN:37,_ZN5intel4hexl37EltwiseMultModAVX512IFMAIntLoopUnrollILi25ELi1ELi1024EEEvPDv8_xPKS2_S5_S2_S2_S2_S2_
FN:37,_ZN5intel4hexl37EltwiseMultModAVX512IFMAIntLoopUnrollILi40ELi1ELi2048EEEvPDv8_xPKS2_S5_S2_S2_S2_S2_
FN:37,_ZN5intel4hexl37EltwiseMultModAVX512IFMAIntLoopUnrollILi48ELi1ELi1024EEEvPDv8_xPKS2_S5_S2_S2_S2_S2_
FN:37,_ZN5intel4hexl37EltwiseMultModAVX512IFMAIntLoopUnrollILi46ELi1ELi4096EEEvPDv8_xPKS2_S5_S2_S2_S2_S2_
FN:37,_ZN5intel4hexl37EltwiseMultModAVX512IFMAIntLoopUnrollILi26ELi1ELi1024EEEvPDv8_xPKS2_S5_S2_S2_S2_S2_
FN:37,_ZN5intel4hexl37EltwiseMultModAVX512IFMAIntLoopUnrollILi50ELi1ELi32768EEEvPDv8_xPKS2_S5_S2_S2_S2_S2_
FN:37,_ZN5intel4hexl37EltwiseMultModAVX512IFMAIntLoopUnrollILi50ELi2ELi8192EEEvPDv8_xPKS2_S5_S2_S2_S2_S2_
FN:37,_ZN5intel4hexl37EltwiseMultModAVX512IFMAIntLoopUnrollILi43ELi1ELi2048EEEvPDv8_xPKS2_S5_S2_S2_S2_S2_
FN:37,_ZN5intel4hexl37EltwiseMultModAVX512IFMAIntLoopUnrollILi29ELi1ELi4096EEEvPDv8_xPKS2_S5_S2_S2_S2_S2_
FN:37,_ZN5intel4hexl37EltwiseMultModAVX512IFMAIntLoopUnrollILi17ELi1ELi32768EEEvPDv8_xPKS2_S5_S2_S2_S2_S2_
FN:37,_ZN5intel4hexl37EltwiseMultModAVX512IFMAIntLoopUnrollILi42ELi1ELi8192EEEvPDv8_xPKS2_S5_S2_S2_S2_S2_
FN:37,_ZN5intel4hexl37EltwiseMultModAVX512IFMAIntLoopUnrollILi24ELi1ELi4096EEEvPDv8_xPKS2_S5_S2_S2_S2_S2_
FN:37,_ZN5intel4hexl37EltwiseMultModAVX512IFMAIntLoopUnrollILi50ELi2ELi4096EEEvPDv8_xPKS2_S5_S2_S2_S2_S2_
FN:37,_ZN5intel4hexl37EltwiseMultModAVX512IFMAIntLoopUnrollILi16ELi1ELi8192EEEvPDv8_xPKS2_S5_S2_S2_S2_S2_
FN:37,_ZN5intel4hexl37EltwiseMultModAVX512IFMAIntLoopUnrollILi28ELi1ELi16384EEEvPDv8_xPKS2_S5_S2_S2_S2_S2_
FN:37,_ZN5intel4hexl37EltwiseMultModAVX512IFMAIntLoopUnrollILi31ELi1ELi4096EEEvPDv8_xPKS2_S5_S2_S2_S2_S2_
FN:37,_ZN5intel4hexl37EltwiseMultModAVX512IFMAIntLoopUnrollILi47ELi4ELi2048EEEvPDv8_xPKS2_S5_S2_S2_S2_S2_
FN:37,_ZN5intel4hexl37EltwiseMultModAVX512IFMAIntLoopUnrollILi44ELi1ELi16384EEEvPDv8_xPKS2_S5_S2_S2_S2_S2_
FN:37,_ZN5intel4hexl37EltwiseMultModAVX512IFMAIntLoopUnrollILi41ELi1ELi8192EEEvPDv8_xPKS2_S5_S2_S2_S2_S2_
FN:37,_ZN5intel4hexl37EltwiseMultModAVX512IFMAIntLoopUnrollILi47ELi4ELi16384EEEvPDv8_xPKS2_S5_S2_S2_S2_S2_
FN:37,_ZN5intel4hexl37EltwiseMultModAVX512IFMAIntLoopUnrollILi27ELi1ELi8192EEEvPDv8_xPKS2_S5_S2_S2_S2_S2_
FN:37,_ZN5intel4hexl37EltwiseMultModAVX512IFMAIntLoopUnrollILi48ELi4ELi1024EEEvPDv8_xPKS2_S5_S2_S2_S2_S2_
FN:37,_ZN5intel4hexl37EltwiseMultModAVX512IFMAIntLoopUnrollILi35ELi1ELi32768EEEvPDv8_xPKS2_S5_S2_S2_S2_S2_
FN:37,_ZN5intel4hexl37EltwiseMultModAVX512IFMAIntLoopUnrollILi32ELi1ELi16384EEEvPDv8_xPKS2_S5_S2_S2_S2_S2_
FN:37,_ZN5intel4hexl37EltwiseMultModAVX512IFMAIntLoopUnrollILi17ELi1ELi1024EEEvPDv8_xPKS2_S5_S2_S2_S2_S2_
FN:37,_ZN5intel4hexl37EltwiseMultModAVX512IFMAIntLoopUnrollILi38ELi1ELi32768EEEvPDv8_xPKS2_S5_S2_S2_S2_S2_
FN:37,_ZN5intel4hexl37EltwiseMultModAVX512IFMAIntLoopUnrollILi35ELi1ELi4096EEEvPDv8_xPKS2_S5_S2_S2_S2_S2_
FN:37,_ZN5intel4hexl37EltwiseMultModAVX512IFMAIntLoopUnrollILi48ELi4ELi8192EEEvPDv8_xPKS2_S5_S2_S2_S2_S2_
FN:37,_ZN5intel4hexl37EltwiseMultModAVX512IFMAIntLoopUnrollILi45ELi1ELi16384EEEvPDv8_xPKS2_S5_S2_S2_S2_S2_
FN:37,_ZN5intel4hexl37EltwiseMultModAVX512IFMAIntLoopUnrollILi49ELi4ELi32768EEEvPDv8_xPKS2_S5_S2_S2_S2_S2_
FN:37,_ZN5intel4hexl37EltwiseMultModAVX512IFMAIntLoopUnrollILi34ELi1ELi1024EEEvPDv8_xPKS2_S5_S2_S2_S2_S2_
FN:37,_ZN5intel4hexl37EltwiseMultModAVX512IFMAIntLoopUnrollILi24ELi1ELi8192EEEvPDv8_xPKS2_S5_S2_S2_S2_S2_
FN:37,_ZN5intel4hexl37EltwiseMultModAVX512IFMAIntLoopUnrollILi24ELi1ELi1024EEEvPDv8_xPKS2_S5_S2_S2_S2_S2_
FN:37,_ZN5intel4hexl37EltwiseMultModAVX512IFMAIntLoopUnrollILi31ELi1ELi1024EEEvPDv8_xPKS2_S5_S2_S2_S2_S2_
FN:37,_ZN5intel4hexl37EltwiseMultModAVX512IFMAIntLoopUnrollILi33ELi1ELi32768EEEvPDv8_xPKS2_S5_S2_S2_S2_S2_
FN:37,_ZN5intel4hexl37EltwiseMultModAVX512IFMAIntLoopUnrollILi26ELi1ELi16384EEEvPDv8_xPKS2_S5_S2_S2_S2_S2_
FN:37,_ZN5intel4hexl37EltwiseMultModAVX512IFMAIntLoopUnrollILi45ELi1ELi8192EEEvPDv8_xPKS2_S5_S2_S2_S2_S2_
FN:37,_ZN5intel4hexl37EltwiseMultModAVX512IFMAIntLoopUnrollILi33ELi1ELi4096EEEvPDv8_xPKS2_S5_S2_S2_S2_S2_
FN:37,_ZN5intel4hexl37EltwiseMultModAVX512IFMAIntLoopUnrollILi31ELi1ELi32768EEEvPDv8_xPKS2_S5_S2_S2_S2_S2_
FN:37,_ZN5intel4hexl37EltwiseMultModAVX512IFMAIntLoopUnrollILi22ELi1ELi4096EEEvPDv8_xPKS2_S5_S2_S2_S2_S2_
FN:37,_ZN5intel4hexl37EltwiseMultModAVX512IFMAIntLoopUnrollILi21ELi1ELi1024EEEvPDv8_xPKS2_S5_S2_S2_S2_S2_
FN:37,_ZN5intel4hexl37EltwiseMultModAVX512IFMAIntLoopUnrollILi17ELi1ELi4096EEEvPDv8_xPKS2_S5_S2_S2_S2_S2_
FN:37,_ZN5intel4hexl37EltwiseMultModAVX512IFMAIntLoopUnrollILi45ELi1ELi2048EEEvPDv8_xPKS2_S5_S2_S2_S2_S2_
FN:37,_ZN5intel4hexl37EltwiseMultModAVX512IFMAIntLoopUnrollILi20ELi1ELi8192EEEvPDv8_xPKS2_S5_S2_S2_S2_S2_
FN:37,_ZN5intel4hexl37EltwiseMultModAVX512IFMAIntLoopUnrollILi51ELi1ELi2048EEEvPDv8_xPKS2_S5_S2_S2_S2_S2_
FN:37,_ZN5intel4hexl37EltwiseMultModAVX512IFMAIntLoopUnrollILi19ELi1ELi2048EEEvPDv8_xPKS2_S5_S2_S2_S2_S2_
FN:37,_ZN5intel4hexl37EltwiseMultModAVX512IFMAIntLoopUnrollILi41ELi1ELi16384EEEvPDv8_xPKS2_S5_S2_S2_S2_S2_
FN:37,_ZN5intel4hexl37EltwiseMultModAVX512IFMAIntLoopUnrollILi36ELi1ELi2048EEEvPDv8_xPKS2_S5_S2_S2_S2_S2_
FN:37,_ZN5intel4hexl37EltwiseMultModAVX512IFMAIntLoopUnrollILi36ELi1ELi32768EEEvPDv8_xPKS2_S5_S2_S2_S2_S2_
FN:37,_ZN5intel4hexl37EltwiseMultModAVX512IFMAIntLoopUnrollILi45ELi1ELi32768EEEvPDv8_xPKS2_S5_S2_S2_S2_S2_
FN:37,_ZN5intel4hexl37EltwiseMultModAVX512IFMAIntLoopUnrollILi46ELi1ELi2048EEEvPDv8_xPKS2_S5_S2_S2_S2_S2_
FN:37,_ZN5intel4hexl37EltwiseMultModAVX512IFMAIntLoopUnrollILi24ELi1ELi2048EEEvPDv8_xPKS2_S5_S2_S2_S2_S2_
FN:37,_ZN5intel4hexl37EltwiseMultModAVX512IFMAIntLoopUnrollILi46ELi1ELi1024EEEvPDv8_xPKS2_S5_S2_S2_S2_S2_
FN:37,_ZN5intel4hexl37EltwiseMultModAVX512IFMAIntLoopUnrollILi26ELi1ELi2048EEEvPDv8_xPKS2_S5_S2_S2_S2_S2_
FN:37,_ZN5intel4hexl37EltwiseMultModAVX512IFMAIntLoopUnrollILi28ELi1ELi32768EEEvPDv8_xPKS2_S5_S2_S2_S2_S2_
FN:37,_ZN5intel4hexl37EltwiseMultModAVX512IFMAIntLoopUnrollILi49ELi4ELi1024EEEvPDv8_xPKS2_S5_S2_S2_S2_S2_
FN:37,_ZN5intel4hexl37EltwiseMultModAVX512IFMAIntLoopUnrollILi41ELi1ELi2048EEEvPDv8_xPKS2_S5_S2_S2_S2_S2_
FN:37,_ZN5intel4hexl37EltwiseMultModAVX512IFMAIntLoopUnrollILi32ELi1ELi2048EEEvPDv8_xPKS2_S5_S2_S2_S2_S2_
FN:37,_ZN5intel4hexl37EltwiseMultModAVX512IFMAIntLoopUnrollILi41ELi1ELi32768EEEvPDv8_xPKS2_S5_S2_S2_S2_S2_
FN:37,_ZN5intel4hexl37EltwiseMultModAVX512IFMAIntLoopUnrollILi16ELi1ELi16384EEEvPDv8_xPKS2_S5_S2_S2_S2_S2_
FN:37,_ZN5intel4hexl37EltwiseMultModAVX512IFMAIntLoopUnrollILi29ELi1ELi2048EEEvPDv8_xPKS2_S5_S2_S2_S2_S2_
FN:37,_ZN5intel4hexl37EltwiseMultModAVX512IFMAIntLoopUnrollILi50ELi4ELi16384EEEvPDv8_xPKS2_S5_S2_S2_S2_S2_
FN:37,_ZN5intel4hexl37EltwiseMultModAVX512IFMAIntLoopUnrollILi23ELi1ELi32768EEEvPDv8_xPKS2_S5_S2_S2_S2_S2_
FN:37,_ZN5intel4hexl37EltwiseMultModAVX512IFMAIntLoopUnrollILi23ELi1ELi16384EEEvPDv8_xPKS2_S5_S2_S2_S2_S2_
FN:37,_ZN5intel4hexl37EltwiseMultModAVX512IFMAIntLoopUnrollILi38ELi1ELi2048EEEvPDv8_xPKS2_S5_S2_S2_S2_S2_
FN:37,_ZN5intel4hexl37EltwiseMultModAVX512IFMAIntLoopUnrollILi39ELi1ELi2048EEEvPDv8_xPKS2_S5_S2_S2_S2_S2_
FN:37,_ZN5intel4hexl37EltwiseMultModAVX512IFMAIntLoopUnrollILi21ELi1ELi4096EEEvPDv8_xPKS2_S5_S2_S2_S2_S2_
FN:37,_ZN5intel4hexl37EltwiseMultModAVX512IFMAIntLoopUnrollILi39ELi1ELi16384EEEvPDv8_xPKS2_S5_S2_S2_S2_S2_
FN:37,_ZN5intel4hexl37EltwiseMultModAVX512IFMAIntLoopUnrollILi29ELi1ELi8192EEEvPDv8_xPKS2_S5_S2_S2_S2_S2_
FN:37,_ZN5intel4hexl37EltwiseMultModAVX512IFMAIntLoopUnrollILi27ELi1ELi1024EEEvPDv8_xPKS2_S5_S2_S2_S2_S2_
FN:37,_ZN5intel4hexl37EltwiseMultModAVX512IFMAIntLoopUnrollILi31ELi1ELi8192EEEvPDv8_xPKS2_S5_S2_S2_S2_S2_
FN:37,_ZN5intel4hexl37EltwiseMultModAVX512IFMAIntLoopUnrollILi49ELi1ELi1024EEEvPDv8_xPKS2_S5_S2_S2_S2_S2_
FN:37,_ZN5intel4hexl37EltwiseMultModAVX512IFMAIntLoopUnrollILi43ELi1ELi8192EEEvPDv8_xPKS2_S5_S2_S2_S2_S2_
FN:37,_ZN5intel4hexl37EltwiseMultModAVX512IFMAIntLoopUnrollILi25ELi1ELi2048EEEvPDv8_xPKS2_S5_S2_S2_S2_S2_
FN:37,_ZN5intel4hexl37EltwiseMultModAVX512IFMAIntLoopUnrollILi23ELi1ELi1024EEEvPDv8_xPKS2_S5_S2_S2_S2_S2_
FN:37,_ZN5intel4hexl37EltwiseMultModAVX512IFMAIntLoopUnrollILi33ELi1ELi2048EEEvPDv8_xPKS2_S5_S2_S2_S2_S2_
FN:37,_ZN5intel4hexl37EltwiseMultModAVX512IFMAIntLoopUnrollILi32ELi1ELi32768EEEvPDv8_xPKS2_S5_S2_S2_S2_S2_
FN:37,_ZN5intel4hexl37EltwiseMultModAVX512IFMAIntLoopUnrollILi50ELi4ELi1024EEEvPDv8_xPKS2_S5_S2_S2_S2_S2_
FN:37,_ZN5intel4hexl37EltwiseMultModAVX512IFMAIntLoopUnrollILi45ELi1ELi1024EEEvPDv8_xPKS2_S5_S2_S2_S2_S2_
FN:37,_ZN5intel4hexl37EltwiseMultModAVX512IFMAIntLoopUnrollILi35ELi1ELi16384EEEvPDv8_xPKS2_S5_S2_S2_S2_S2_
FN:37,_ZN5intel4hexl37EltwiseMultModAVX512IFMAIntLoopUnrollILi37ELi1ELi1024EEEvPDv8_xPKS2_S5_S2_S2_S2_S2_
FN:37,_ZN5intel4hexl37EltwiseMultModAVX512IFMAIntLoopUnrollILi39ELi1ELi1024EEEvPDv8_xPKS2_S5_S2_S2_S2_S2_
FN:37,_ZN5intel4hexl37EltwiseMultModAVX512IFMAIntLoopUnrollILi47ELi1ELi4096EEEvPDv8_xPKS2_S5_S2_S2_S2_S2_
FN:37,_ZN5intel4hexl37EltwiseMultModAVX512IFMAIntLoopUnrollILi49ELi2ELi16384EEEvPDv8_xPKS2_S5_S2_S2_S2_S2_
FN:37,_ZN5intel4hexl37EltwiseMultModAVX512IFMAIntLoopUnrollILi22ELi1ELi2048EEEvPDv8_xPKS2_S5_S2_S2_S2_S2_
FN:37,_ZN5intel4hexl37EltwiseMultModAVX512IFMAIntLoopUnrollILi48ELi2ELi8192EEEvPDv8_xPKS2_S5_S2_S2_S2_S2_
FN:37,_ZN5intel4hexl37EltwiseMultModAVX512IFMAIntLoopUnrollILi22ELi1ELi32768EEEvPDv8_xPKS2_S5_S2_S2_S2_S2_
FN:37,_ZN5intel4hexl37EltwiseMultModAVX512IFMAIntLoopUnrollILi49ELi1ELi32768EEEvPDv8_xPKS2_S5_S2_S2_S2_S2_
FN:37,_ZN5intel4hexl37EltwiseMultModAVX512IFMAIntLoopUnrollILi47ELi2ELi2048EEEvPDv8_xPKS2_S5_S2_S2_S2_S2_
FN:37,_ZN5intel4hexl37EltwiseMultModAVX512IFMAIntLoopUnrollILi46ELi1ELi16384EEEvPDv8_xPKS2_S5_S2_S2_S2_S2_
FN:37,_ZN5intel4hexl37EltwiseMultModAVX512IFMAIntLoopUnrollILi50ELi2ELi2048EEEvPDv8_xPKS2_S5_S2_S2_S2_S2_
FN:37,_ZN5intel4hexl37EltwiseMultModAVX512IFMAIntLoopUnrollILi26ELi1ELi4096EEEvPDv8_xPKS2_S5_S2_S2_S2_S2_
FN:37,_ZN5intel4hexl37EltwiseMultModAVX512IFMAIntLoopUnrollILi48ELi1ELi16384EEEvPDv8_xPKS2_S5_S2_S2_S2_S2_
FN:37,_ZN5intel4hexl37EltwiseMultModAVX512IFMAIntLoopUnrollILi43ELi1ELi16384EEEvPDv8_xPKS2_S5_S2_S2_S2_S2_
FN:37,_ZN5intel4hexl37EltwiseMultModAVX512IFMAIntLoopUnrollILi50ELi1ELi2048EEEvPDv8_xPKS2_S5_S2_S2_S2_S2_
FN:37,_ZN5intel4hexl37EltwiseMultModAVX512IFMAIntLoopUnrollILi19ELi1ELi16384EEEvPDv8_xPKS2_S5_S2_S2_S2_S2_
FN:37,_ZN5intel4hexl37EltwiseMultModAVX512IFMAIntLoopUnrollILi40ELi1ELi4096EEEvPDv8_xPKS2_S5_S2_S2_S2_S2_
FN:37,_ZN5intel4hexl37EltwiseMultModAVX512IFMAIntLoopUnrollILi16ELi1ELi1024EEEvPDv8_xPKS2_S5_S2_S2_S2_S2_
FN:37,_ZN5intel4hexl37EltwiseMultModAVX512IFMAIntLoopUnrollILi48ELi2ELi4096EEEvPDv8_xPKS2_S5_S2_S2_S2_S2_
FN:37,_ZN5intel4hexl37EltwiseMultModAVX512IFMAIntLoopUnrollILi44ELi1ELi4096EEEvPDv8_xPKS2_S5_S2_S2_S2_S2_
FN:37,_ZN5intel4hexl37EltwiseMultModAVX512IFMAIntLoopUnrollILi48ELi1ELi4096EEEvPDv8_xPKS2_S5_S2_S2_S2_S2_
FN:37,_ZN5intel4hexl37EltwiseMultModAVX512IFMAIntLoopUnrollILi50ELi2ELi32768EEEvPDv8_xPKS2_S5_S2_S2_S2_S2_
FN:37,_ZN5intel4hexl37EltwiseMultModAVX512IFMAIntLoopUnrollILi51ELi1ELi1024EEEvPDv8_xPKS2_S5_S2_S2_S2_S2_
FN:37,_ZN5intel4hexl37EltwiseMultModAVX512IFMAIntLoopUnrollILi21ELi1ELi2048EEEvPDv8_xPKS2_S5_S2_S2_S2_S2_
FN:37,_ZN5intel4hexl37EltwiseMultModAVX512IFMAIntLoopUnrollILi25ELi1ELi8192EEEvPDv8_xPKS2_S5_S2_S2_S2_S2_
FN:37,_ZN5intel4hexl37EltwiseMultModAVX512IFMAIntLoopUnrollILi21ELi1ELi16384EEEvPDv8_xPKS2_S5_S2_S2_S2_S2_
FN:37,_ZN5intel4hexl37EltwiseMultModAVX512IFMAIntLoopUnrollILi47ELi2ELi16384EEEvPDv8_xPKS2_S5_S2_S2_S2_S2_
FN:37,_ZN5intel4hexl37EltwiseMultModAVX512IFMAIntLoopUnrollILi46ELi1ELi32768EEEvPDv8_xPKS2_S5_S2_S2_S2_S2_
FN:37,_ZN5intel4hexl37EltwiseMultModAVX512IFMAIntLoopUnrollILi34ELi1ELi8192EEEvPDv8_xPKS2_S5_S2_S2_S2_S2_
FN:37,_ZN5intel4hexl37EltwiseMultModAVX512IFMAIntLoopUnrollILi46ELi1ELi8192EEEvPDv8_xPKS2_S5_S2_S2_S2_S2_
FN:37,_ZN5intel4hexl37EltwiseMultModAVX512IFMAIntLoopUnrollILi47ELi1ELi8192EEEvPDv8_xPKS2_S5_S2_S2_S2_S2_
FN:37,_ZN5intel4hexl37EltwiseMultModAVX512IFMAIntLoopUnrollILi34ELi1ELi16384EEEvPDv8_xPKS2_S5_S2_S2_S2_S2_
FN:37,_ZN5intel4hexl37EltwiseMultModAVX512IFMAIntLoopUnrollILi23ELi1ELi4096EEEvPDv8_xPKS2_S5_S2_S2_S2_S2_
FN:37,_ZN5intel4hexl37EltwiseMultModAVX512IFMAIntLoopUnrollILi50ELi4ELi32768EEEvPDv8_xPKS2_S5_S2_S2_S2_S2_
FN:37,_ZN5intel4hexl37EltwiseMultModAVX512IFMAIntLoopUnrollILi47ELi4ELi1024EEEvPDv8_xPKS2_S5_S2_S2_S2_S2_
FN:37,_ZN5intel4hexl37EltwiseMultModAVX512IFMAIntLoopUnrollILi32ELi1ELi8192EEEvPDv8_xPKS2_S5_S2_S2_S2_S2_
FN:37,_ZN5intel4hexl37EltwiseMultModAVX512IFMAIntLoopUnrollILi15ELi1ELi4096EEEvPDv8_xPKS2_S5_S2_S2_S2_S2_
FN:37,_ZN5intel4hexl37EltwiseMultModAVX512IFMAIntLoopUnrollILi47ELi4ELi8192EEEvPDv8_xPKS2_S5_S2_S2_S2_S2_
FN:37,_ZN5intel4hexl37EltwiseMultModAVX512IFMAIntLoopUnrollILi48ELi2ELi16384EEEvPDv8_xPKS2_S5_S2_S2_S2_S2_
FN:37,_ZN5intel4hexl37EltwiseMultModAVX512IFMAIntLoopUnrollILi43ELi1ELi1024EEEvPDv8_xPKS2_S5_S2_S2_S2_S2_
FN:37,_ZN5intel4hexl37EltwiseMultModAVX512IFMAIntLoopUnrollILi49ELi4ELi4096EEEvPDv8_xPKS2_S5_S2_S2_S2_S2_
FN:37,_ZN5intel4hexl37EltwiseMultModAVX512IFMAIntLoopUnrollILi37ELi1ELi16384EEEvPDv8_xPKS2_S5_S2_S2_S2_S2_
FN:37,_ZN5intel4hexl37EltwiseMultModAVX512IFMAIntLoopUnrollILi15ELi1ELi1024EEEvPDv8_xPKS2_S5_S2_S2_S2_S2_
FN:37,_ZN5intel4hexl37EltwiseMultModAVX512IFMAIntLoopUnrollILi27ELi1ELi2048EEEvPDv8_xPKS2_S5_S2_S2_S2_S2_
FN:37,_ZN5intel4hexl37EltwiseMultModAVX512IFMAIntLoopUnrollILi20ELi1ELi2048EEEvPDv8_xPKS2_S5_S2_S2_S2_S2_
FN:37,_ZN5intel4hexl37EltwiseMultModAVX512IFMAIntLoopUnrollILi49ELi4ELi16384EEEvPDv8_xPKS2_S5_S2_S2_S2_S2_
FN:37,_ZN5intel4hexl37EltwiseMultModAVX512IFMAIntLoopUnrollILi40ELi1ELi1024EEEvPDv8_xPKS2_S5_S2_S2_S2_S2_
FN:37,_ZN5intel4hexl37EltwiseMultModAVX512IFMAIntLoopUnrollILi16ELi1ELi2048EEEvPDv8_xPKS2_S5_S2_S2_S2_S2_
FN:37,_ZN5intel4hexl37EltwiseMultModAVX512IFMAIntLoopUnrollILi51ELi1ELi32768EEEvPDv8_xPKS2_S5_S2_S2_S2_S2_
FN:37,_ZN5intel4hexl37EltwiseMultModAVX512IFMAIntLoopUnrollILi29ELi1ELi16384EEEvPDv8_xPKS2_S5_S2_S2_S2_S2_
FN:37,_ZN5intel4hexl37EltwiseMultModAVX512IFMAIntLoopUnrollILi49ELi2ELi32768EEEvPDv8_xPKS2_S5_S2_S2_S2_S2_
FN:37,_ZN5intel4hexl37EltwiseMultModAVX512IFMAIntLoopUnrollILi17ELi1ELi16384EEEvPDv8_xPKS2_S5_S2_S2_S2_S2_
FN:37,_ZN5intel4hexl37EltwiseMultModAVX512IFMAIntLoopUnrollILi17ELi1ELi2048EEEvPDv8_xPKS2_S5_S2_S2_S2_S2_
FN:37,_ZN5intel4hexl37EltwiseMultModAVX512IFMAIntLoopUnrollILi47ELi1ELi2048EEEvPDv8_xPKS2_S5_S2_S2_S2_S2_
FN:37,_ZN5intel4hexl37EltwiseMultModAVX512IFMAIntLoopUnrollILi48ELi4ELi2048EEEvPDv8_xPKS2_S5_S2_S2_S2_S2_
FN:37,_ZN5intel4hexl37EltwiseMultModAVX512IFMAIntLoopUnrollILi25ELi1ELi4096EEEvPDv8_xPKS2_S5_S2_S2_S2_S2_
FN:37,_ZN5intel4hexl37EltwiseMultModAVX512IFMAIntLoopUnrollILi39ELi1ELi32768EEEvPDv8_xPKS2_S5_S2_S2_S2_S2_
FN:37,_ZN5intel4hexl37EltwiseMultModAVX512IFMAIntLoopUnrollILi22ELi1ELi8192EEEvPDv8_xPKS2_S5_S2_S2_S2_S2_
FN:37,_ZN5intel4hexl37EltwiseMultModAVX512IFMAIntLoopUnrollILi18ELi1ELi4096EEEvPDv8_xPKS2_S5_S2_S2_S2_S2_
FN:37,_ZN5intel4hexl37EltwiseMultModAVX512IFMAIntLoopUnrollILi42ELi1ELi32768EEEvPDv8_xPKS2_S5_S2_S2_S2_S2_
FN:37,_ZN5intel4hexl37EltwiseMultModAVX512IFMAIntLoopUnrollILi33ELi1ELi16384EEEvPDv8_xPKS2_S5_S2_S2_S2_S2_
FN:37,_ZN5intel4hexl37EltwiseMultModAVX512IFMAIntLoopUnrollILi44ELi1ELi8192EEEvPDv8_xPKS2_S5_S2_S2_S2_S2_
FN:37,_ZN5intel4hexl37EltwiseMultModAVX512IFMAIntLoopUnrollILi29ELi1ELi1024EEEvPDv8_xPKS2_S5_S2_S2_S2_S2_
FN:37,_ZN5intel4hexl37EltwiseMultModAVX512IFMAIntLoopUnrollILi25ELi1ELi16384EEEvPDv8_xPKS2_S5_S2_S2_S2_S2_
FN:37,_ZN5intel4hexl37EltwiseMultModAVX512IFMAIntLoopUnrollILi45ELi1ELi4096EEEvPDv8_xPKS2_S5_S2_S2_S2_S2_
FN:37,_ZN5intel4hexl37EltwiseMultModAVX512IFMAIntLoopUnrollILi51ELi1ELi16384EEEvPDv8_xPKS2_S5_S2_S2_S2_S2_
FN:37,_ZN5intel4hexl37EltwiseMultModAVX512IFMAIntLoopUnrollILi42ELi1ELi16384EEEvPDv8_xPKS2_S5_S2_S2_S2_S2_
FN:37,_ZN5intel4hexl37EltwiseMultModAVX512IFMAIntLoopUnrollILi23ELi1ELi8192EEEvPDv8_xPKS2_S5_S2_S2_S2_S2_
FN:37,_ZN5intel4hexl37EltwiseMultModAVX512IFMAIntLoopUnrollILi41ELi1ELi4096EEEvPDv8_xPKS2_S5_S2_S2_S2_S2_
FN:37,_ZN5intel4hexl37EltwiseMultModAVX512IFMAIntLoopUnrollILi36ELi1ELi4096EEEvPDv8_xPKS2_S5_S2_S2_S2_S2_
FN:37,_ZN5intel4hexl37EltwiseMultModAVX512IFMAIntLoopUnrollILi32ELi1ELi4096EEEvPDv8_xPKS2_S5_S2_S2_S2_S2_
FN:37,_ZN5intel4hexl37EltwiseMultModAVX512IFMAIntLoopUnrollILi48ELi1ELi8192EEEvPDv8_xPKS2_S5_S2_S2_S2_S2_
FN:37,_ZN5intel4hexl37EltwiseMultModAVX512IFMAIntLoopUnrollILi48ELi1ELi32768EEEvPDv8_xPKS2_S5_S2_S2_S2_S2_
FN:37,_ZN5intel4hexl37EltwiseMultModAVX512IFMAIntLoopUnrollILi48ELi4ELi32768EEEvPDv8_xPKS2_S5_S2_S2_S2_S2_
FN:37,_ZN5intel4hexl37EltwiseMultModAVX512IFMAIntLoopUnrollILi47ELi2ELi4096EEEvPDv8_xPKS2_S5_S2_S2_S2_S2_
FN:37,_ZN5intel4hexl37EltwiseMultModAVX512IFMAIntLoopUnrollILi42ELi1ELi2048EEEvPDv8_xPKS2_S5_S2_S2_S2_S2_
FN:37,_ZN5intel4hexl37EltwiseMultModAVX512IFMAIntLoopUnrollILi33ELi1ELi1024EEEvPDv8_xPKS2_S5_S2_S2_S2_S2_
FN:37,_ZN5intel4hexl37EltwiseMultModAVX512IFMAIntLoopUnrollILi28ELi1ELi2048EEEvPDv8_xPKS2_S5_S2_S2_S2_S2_
FN:37,_ZN5intel4hexl37EltwiseMultModAVX512IFMAIntLoopUnrollILi44ELi1ELi2048EEEvPDv8_xPKS2_S5_S2_S2_S2_S2_
FN:37,_ZN5intel4hexl37EltwiseMultModAVX512IFMAIntLoopUnrollILi38ELi1ELi16384EEEvPDv8_xPKS2_S5_S2_S2_S2_S2_
FN:37,_ZN5intel4hexl37EltwiseMultModAVX512IFMAIntLoopUnrollILi48ELi2ELi32768EEEvPDv8_xPKS2_S5_S2_S2_S2_S2_
FN:37,_ZN5intel4hexl37EltwiseMultModAVX512IFMAIntLoopUnrollILi26ELi1ELi8192EEEvPDv8_xPKS2_S5_S2_S2_S2_S2_
FN:37,_ZN5intel4hexl37EltwiseMultModAVX512IFMAIntLoopUnrollILi38ELi1ELi8192EEEvPDv8_xPKS2_S5_S2_S2_S2_S2_
FN:37,_ZN5intel4hexl37EltwiseMultModAVX512IFMAIntLoopUnrollILi16ELi1ELi4096EEEvPDv8_xPKS2_S5_S2_S2_S2_S2_
FN:37,_ZN5intel4hexl37EltwiseMultModAVX512IFMAIntLoopUnrollILi19ELi1ELi8192EEEvPDv8_xPKS2_S5_S2_S2_S2_S2_
FN:37,_ZN5intel4hexl37EltwiseMultModAVX512IFMAIntLoopUnrollILi51ELi1ELi8192EEEvPDv8_xPKS2_S5_S2_S2_S2_S2_
FN:37,_ZN5intel4hexl37EltwiseMultModAVX512IFMAIntLoopUnrollILi15ELi1ELi2048EEEvPDv8_xPKS2_S5_S2_S2_S2_S2_
FN:37,_ZN5intel4hexl37EltwiseMultModAVX512IFMAIntLoopUnrollILi28ELi1ELi8192EEEvPDv8_xPKS2_S5_S2_S2_S2_S2_
FN:37,_ZN5intel4hexl37EltwiseMultModAVX512IFMAIntLoopUnrollILi21ELi1ELi8192EEEvPDv8_xPKS2_S5_S2_S2_S2_S2_
FN:37,_ZN5intel4hexl37EltwiseMultModAVX512IFMAIntLoopUnrollILi47ELi1ELi32768EEEvPDv8_xPKS2_S5_S2_S2_S2_S2_
FN:37,_ZN5intel4hexl37EltwiseMultModAVX512IFMAIntLoopUnrollILi18ELi1ELi8192EEEvPDv8_xPKS2_S5_S2_S2_S2_S2_
FN:37,_ZN5intel4hexl37EltwiseMultModAVX512IFMAIntLoopUnrollILi48ELi1ELi2048EEEvPDv8_xPKS2_S5_S2_S2_S2_S2_
FN:37,_ZN5intel4hexl37EltwiseMultModAVX512IFMAIntLoopUnrollILi44ELi1ELi1024EEEvPDv8_xPKS2_S5_S2_S2_S2_S2_
FN:37,_ZN5intel4hexl37EltwiseMultModAVX512IFMAIntLoopUnrollILi50ELi4ELi4096EEEvPDv8_xPKS2_S5_S2_S2_S2_S2_
FN:37,_ZN5intel4hexl37EltwiseMultModAVX512IFMAIntLoopUnrollILi22ELi1ELi16384EEEvPDv8_xPKS2_S5_S2_S2_S2_S2_
FN:37,_ZN5intel4hexl37EltwiseMultModAVX512IFMAIntLoopUnrollILi20ELi1ELi4096EEEvPDv8_xPKS2_S5_S2_S2_S2_S2_
FN:37,_ZN5intel4hexl37EltwiseMultModAVX512IFMAIntLoopUnrollILi25ELi1ELi32768EEEvPDv8_xPKS2_S5_S2_S2_S2_S2_
FN:37,_ZN5intel4hexl37EltwiseMultModAVX512IFMAIntLoopUnrollILi43ELi1ELi32768EEEvPDv8_xPKS2_S5_S2_S2_S2_S2_
FN:37,_ZN5intel4hexl37EltwiseMultModAVX512IFMAIntLoopUnrollILi38ELi1ELi1024EEEvPDv8_xPKS2_S5_S2_S2_S2_S2_
FN:37,_ZN5intel4hexl37EltwiseMultModAVX512IFMAIntLoopUnrollILi18ELi1ELi16384EEEvPDv8_xPKS2_S5_S2_S2_S2_S2_
FN:37,_ZN5intel4hexl37EltwiseMultModAVX512IFMAIntLoopUnrollILi36ELi1ELi16384EEEvPDv8_xPKS2_S5_S2_S2_S2_S2_
FN:37,_ZN5intel4hexl37EltwiseMultModAVX512IFMAIntLoopUnrollILi37ELi1ELi2048EEEvPDv8_xPKS2_S5_S2_S2_S2_S2_
FN:37,_ZN5intel4hexl37EltwiseMultModAVX512IFMAIntLoopUnrollILi41ELi1ELi1024EEEvPDv8_xPKS2_S5_S2_S2_S2_S2_
FN:37,_ZN5intel4hexl37EltwiseMultModAVX512IFMAIntLoopUnrollILi42ELi1ELi4096EEEvPDv8_xPKS2_S5_S2_S2_S2_S2_
FN:37,_ZN5intel4hexl37EltwiseMultModAVX512IFMAIntLoopUnrollILi49ELi2ELi1024EEEvPDv8_xPKS2_S5_S2_S2_S2_S2_
FN:37,_ZN5intel4hexl37EltwiseMultModAVX512IFMAIntLoopUnrollILi18ELi1ELi1024EEEvPDv8_xPKS2_S5_S2_S2_S2_S2_
FN:37,_ZN5intel4hexl37EltwiseMultModAVX512IFMAIntLoopUnrollILi15ELi1ELi16384EEEvPDv8_xPKS2_S5_S2_S2_S2_S2_
FN:37,_ZN5intel4hexl37EltwiseMultModAVX512IFMAIntLoopUnrollILi34ELi1ELi32768EEEvPDv8_xPKS2_S5_S2_S2_S2_S2_
FN:37,_ZN5intel4hexl37EltwiseMultModAVX512IFMAIntLoopUnrollILi18ELi1ELi32768EEEvPDv8_xPKS2_S5_S2_S2_S2_S2_
FN:37,_ZN5intel4hexl37EltwiseMultModAVX512IFMAIntLoopUnrollILi17ELi1ELi8192EEEvPDv8_xPKS2_S5_S2_S2_S2_S2_
FN:37,_ZN5intel4hexl37EltwiseMultModAVX512IFMAIntLoopUnrollILi35ELi1ELi2048EEEvPDv8_xPKS2_S5_S2_S2_S2_S2_
FN:37,_ZN5intel4hexl37EltwiseMultModAVX512IFMAIntLoopUnrollILi48ELi4ELi16384EEEvPDv8_xPKS2_S5_S2_S2_S2_S2_
FN:37,_ZN5intel4hexl37EltwiseMultModAVX512IFMAIntLoopUnrollILi43ELi1ELi4096EEEvPDv8_xPKS2_S5_S2_S2_S2_S2_
FN:37,_ZN5intel4hexl37EltwiseMultModAVX512IFMAIntLoopUnrollILi32ELi1ELi1024EEEvPDv8_xPKS2_S5_S2_S2_S2_S2_
FN:37,_ZN5intel4hexl37EltwiseMultModAVX512IFMAIntLoopUnrollILi15ELi1ELi8192EEEvPDv8_xPKS2_S5_S2_S2_S2_S2_
FN:37,_ZN5intel4hexl37EltwiseMultModAVX512IFMAIntLoopUnrollILi47ELi2ELi8192EEEvPDv8_xPKS2_S5_S2_S2_S2_S2_
FN:37,_ZN5intel4hexl37EltwiseMultModAVX512IFMAIntLoopUnrollILi47ELi1ELi16384EEEvPDv8_xPKS2_S5_S2_S2_S2_S2_
FN:37,_ZN5intel4hexl37EltwiseMultModAVX512IFMAIntLoopUnrollILi28ELi1ELi4096EEEvPDv8_xPKS2_S5_S2_S2_S2_S2_
FN:37,_ZN5intel4hexl37EltwiseMultModAVX512IFMAIntLoopUnrollILi50ELi1ELi1024EEEvPDv8_xPKS2_S5_S2_S2_S2_S2_
FN:37,_ZN5intel4hexl37EltwiseMultModAVX512IFMAIntLoopUnrollILi33ELi1ELi8192EEEvPDv8_xPKS2_S5_S2_S2_S2_S2_
FN:37,_ZN5intel4hexl37EltwiseMultModAVX512IFMAIntLoopUnrollILi36ELi1ELi8192EEEvPDv8_xPKS2_S5_S2_S2_S2_S2_
FN:37,_ZN5intel4hexl37EltwiseMultModAVX512IFMAIntLoopUnrollILi49ELi2ELi2048EEEvPDv8_xPKS2_S5_S2_S2_S2_S2_
FN:37,_ZN5intel4hexl37EltwiseMultModAVX512IFMAIntLoopUnrollILi28ELi1ELi1024EEEvPDv8_xPKS2_S5_S2_S2_S2_S2_
FN:37,_ZN5intel4hexl37EltwiseMultModAVX512IFMAIntLoopUnrollILi19ELi1ELi1024EEEvPDv8_xPKS2_S5_S2_S2_S2_S2_
FN:37,_ZN5intel4hexl37EltwiseMultModAVX512IFMAIntLoopUnrollILi47ELi1ELi1024EEEvPDv8_xPKS2_S5_S2_S2_S2_S2_
FN:37,_ZN5intel4hexl37EltwiseMultModAVX512IFMAIntLoopUnrollILi47ELi4ELi32768EEEvPDv8_xPKS2_S5_S2_S2_S2_S2_
FN:37,_ZN5intel4hexl37EltwiseMultModAVX512IFMAIntLoopUnrollILi50ELi1ELi4096EEEvPDv8_xPKS2_S5_S2_S2_S2_S2_
FN:37,_ZN5intel4hexl37EltwiseMultModAVX512IFMAIntLoopUnrollILi44ELi1ELi32768EEEvPDv8_xPKS2_S5_S2_S2_S2_S2_
FN:37,_ZN5intel4hexl37EltwiseMultModAVX512IFMAIntLoopUnrollILi27ELi1ELi16384EEEvPDv8_xPKS2_S5_S2_S2_S2_S2_
FN:37,_ZN5intel4hexl37EltwiseMultModAVX512IFMAIntLoopUnrollILi49ELi4ELi2048EEEvPDv8_xPKS2_S5_S2_S2_S2_S2_
FN:37,_ZN5intel4hexl37EltwiseMultModAVX512IFMAIntLoopUnrollILi50ELi2ELi16384EEEvPDv8_xPKS2_S5_S2_S2_S2_S2_
FN:37,_ZN5intel4hexl37EltwiseMultModAVX512IFMAIntLoopUnrollILi47ELi4ELi4096EEEvPDv8_xPKS2_S5_S2_S2_S2_S2_
FN:37,_ZN5intel4hexl37EltwiseMultModAVX512IFMAIntLoopUnrollILi31ELi1ELi2048EEEvPDv8_xPKS2_S5_S2_S2_S2_S2_
FN:37,_ZN5intel4hexl37EltwiseMultModAVX512IFMAIntLoopUnrollILi20ELi1ELi32768EEEvPDv8_xPKS2_S5_S2_S2_S2_S2_
FN:37,_ZN5intel4hexl37EltwiseMultModAVX512IFMAIntLoopUnrollILi27ELi1ELi32768EEEvPDv8_xPKS2_S5_S2_S2_S2_S2_
FN:37,_ZN5intel4hexl37EltwiseMultModAVX512IFMAIntLoopUnrollILi34ELi1ELi4096EEEvPDv8_xPKS2_S5_S2_S2_S2_S2_
FN:37,_ZN5intel4hexl37EltwiseMultModAVX512IFMAIntLoopUnrollILi22ELi1ELi1024EEEvPDv8_xPKS2_S5_S2_S2_S2_S2_
FN:37,_ZN5intel4hexl37EltwiseMultModAVX512IFMAIntLoopUnrollILi19ELi1ELi4096EEEvPDv8_xPKS2_S5_S2_S2_S2_S2_
FN:37,_ZN5intel4hexl37EltwiseMultModAVX512IFMAIntLoopUnrollILi29ELi1ELi32768EEEvPDv8_xPKS2_S5_S2_S2_S2_S2_
FN:37,_ZN5intel4hexl37EltwiseMultModAVX512IFMAIntLoopUnrollILi50ELi4ELi8192EEEvPDv8_xPKS2_S5_S2_S2_S2_S2_
FN:37,_ZN5intel4hexl37EltwiseMultModAVX512IFMAIntLoopUnrollILi35ELi1ELi8192EEEvPDv8_xPKS2_S5_S2_S2_S2_S2_
FN:37,_ZN5intel4hexl37EltwiseMultModAVX512IFMAIntLoopUnrollILi37ELi1ELi4096EEEvPDv8_xPKS2_S5_S2_S2_S2_S2_
FN:37,_ZN5intel4hexl37EltwiseMultModAVX512IFMAIntLoopUnrollILi48ELi4ELi4096EEEvPDv8_xPKS2_S5_S2_S2_S2_S2_
FN:37,_ZN5intel4hexl37EltwiseMultModAVX512IFMAIntLoopUnrollILi34ELi1ELi2048EEEvPDv8_xPKS2_S5_S2_S2_S2_S2_
FN:37,_ZN5intel4hexl37EltwiseMultModAVX512IFMAIntLoopUnrollILi21ELi1ELi32768EEEvPDv8_xPKS2_S5_S2_S2_S2_S2_
FN:37,_ZN5intel4hexl37EltwiseMultModAVX512IFMAIntLoopUnrollILi19ELi1ELi32768EEEvPDv8_xPKS2_S5_S2_S2_S2_S2_
FN:37,_ZN5intel4hexl37EltwiseMultModAVX512IFMAIntLoopUnrollILi24ELi1ELi32768EEEvPDv8_xPKS2_S5_S2_S2_S2_S2_
FN:37,_ZN5intel4hexl37EltwiseMultModAVX512IFMAIntLoopUnrollILi38ELi1ELi4096EEEvPDv8_xPKS2_S5_S2_S2_S2_S2_
FN:37,_ZN5intel4hexl37EltwiseMultModAVX512IFMAIntLoopUnrollILi40ELi1ELi16384EEEvPDv8_xPKS2_S5_S2_S2_S2_S2_
FN:37,_ZN5intel4hexl37EltwiseMultModAVX512IFMAIntLoopUnrollILi48ELi2ELi2048EEEvPDv8_xPKS2_S5_S2_S2_S2_S2_
FN:37,_ZN5intel4hexl37EltwiseMultModAVX512IFMAIntLoopUnrollILi50ELi2ELi1024EEEvPDv8_xPKS2_S5_S2_S2_S2_S2_
FN:37,_ZN5intel4hexl37EltwiseMultModAVX512IFMAIntLoopUnrollILi49ELi2ELi8192EEEvPDv8_xPKS2_S5_S2_S2_S2_S2_
FN:37,_ZN5intel4hexl37EltwiseMultModAVX512IFMAIntLoopUnrollILi35ELi1ELi1024EEEvPDv8_xPKS2_S5_S2_S2_S2_S2_
FN:37,_ZN5intel4hexl37EltwiseMultModAVX512IFMAIntLoopUnrollILi49ELi4ELi8192EEEvPDv8_xPKS2_S5_S2_S2_S2_S2_
FN:37,_ZN5intel4hexl37EltwiseMultModAVX512IFMAIntLoopUnrollILi50ELi1ELi16384EEEvPDv8_xPKS2_S5_S2_S2_S2_S2_
FN:37,_ZN5intel4hexl37EltwiseMultModAVX512IFMAIntLoopUnrollILi49ELi1ELi8192EEEvPDv8_xPKS2_S5_S2_S2_S2_S2_
FN:37,_ZN5intel4hexl37EltwiseMultModAVX512IFMAIntLoopUnrollILi18ELi1ELi2048EEEvPDv8_xPKS2_S5_S2_S2_S2_S2_
FN:37,_ZN5intel4hexl37EltwiseMultModAVX512IFMAIntLoopUnrollILi26ELi1ELi32768EEEvPDv8_xPKS2_S5_S2_S2_S2_S2_
FN:37,_ZN5intel4hexl37EltwiseMultModAVX512IFMAIntLoopUnrollILi16ELi1ELi32768EEEvPDv8_xPKS2_S5_S2_S2_S2_S2_
FN:37,_ZN5intel4hexl37EltwiseMultModAVX512IFMAIntLoopUnrollILi42ELi1ELi1024EEEvPDv8_xPKS2_S5_S2_S2_S2_S2_
FN:37,_ZN5intel4hexl37EltwiseMultModAVX512IFMAIntLoopUnrollILi49ELi1ELi4096EEEvPDv8_xPKS2_S5_S2_S2_S2_S2_
FN:37,_ZN5intel4hexl37EltwiseMultModAVX512IFMAIntLoopUnrollILi37ELi1ELi8192EEEvPDv8_xPKS2_S5_S2_S2_S2_S2_
FN:37,_ZN5intel4hexl37EltwiseMultModAVX512IFMAIntLoopUnrollILi39ELi1ELi8192EEEvPDv8_xPKS2_S5_S2_S2_S2_S2_
FN:37,_ZN5intel4hexl37EltwiseMultModAVX512IFMAIntLoopUnrollILi51ELi1ELi4096EEEvPDv8_xPKS2_S5_S2_S2_S2_S2_
FN:37,_ZN5intel4hexl37EltwiseMultModAVX512IFMAIntLoopUnrollILi20ELi1ELi16384EEEvPDv8_xPKS2_S5_S2_S2_S2_S2_
FN:37,_ZN5intel4hexl37EltwiseMultModAVX512IFMAIntLoopUnrollILi49ELi1ELi2048EEEvPDv8_xPKS2_S5_S2_S2_S2_S2_
FN:333,_ZN5intel4hexl38EltwiseMultModAVX512IFMAIntLoopDefaultILi48ELi2EEEvPDv8_xPKS2_S5_S2_S2_S2_S2_m
FN:333,_ZN5intel4hexl38EltwiseMultModAVX512IFMAIntLoopDefaultILi48ELi4EEEvPDv8_xPKS2_S5_S2_S2_S2_S2_m
FN:333,_ZN5intel4hexl38EltwiseMultModAVX512IFMAIntLoopDefaultILi50ELi4EEEvPDv8_xPKS2_S5_S2_S2_S2_S2_m
FN:333,_ZN5intel4hexl38EltwiseMultModAVX512IFMAIntLoopDefaultILi47ELi4EEEvPDv8_xPKS2_S5_S2_S2_S2_S2_m
FN:333,_ZN5intel4hexl38EltwiseMultModAVX512IFMAIntLoopDefaultILi50ELi2EEEvPDv8_xPKS2_S5_S2_S2_S2_S2_m
FN:333,_ZN5intel4hexl38EltwiseMultModAVX512IFMAIntLoopDefaultILi49ELi4EEEvPDv8_xPKS2_S5_S2_S2_S2_S2_m
FN:333,_ZN5intel4hexl38EltwiseMultModAVX512IFMAIntLoopDefaultILi47ELi2EEEvPDv8_xPKS2_S5_S2_S2_S2_S2_m
FN:333,_ZN5intel4hexl38EltwiseMultModAVX512IFMAIntLoopDefaultILi49ELi2EEEvPDv8_xPKS2_S5_S2_S2_S2_S2_m
FN:380,_ZN5intel4hexl38EltwiseMultModAVX512IFMAIntLoopDefaultILi1EEEvPDv8_xPKS2_S5_S2_S2_S2_S2_mm
FN:425,_ZN5intel4hexl31EltwiseMultModAVX512IFMAIntLoopILi18ELi1EEEvPDv8_xPKS2_S5_S2_S2_S2_S2_m
FN:425,_ZN5intel4hexl31EltwiseMultModAVX512IFMAIntLoopILi44ELi1EEEvPDv8_xPKS2_S5_S2_S2_S2_S2_m
FN:425,_ZN5intel4hexl31EltwiseMultModAVX512IFMAIntLoopILi21ELi1EEEvPDv8_xPKS2_S5_S2_S2_S2_S2_m
FN:425,_ZN5intel4hexl31EltwiseMultModAVX512IFMAIntLoopILi47ELi2EEEvPDv8_xPKS2_S5_S2_S2_S2_S2_m
FN:425,_ZN5intel4hexl31EltwiseMultModAVX512IFMAIntLoopILi36ELi1EEEvPDv8_xPKS2_S5_S2_S2_S2_S2_m
FN:425,_ZN5intel4hexl31EltwiseMultModAVX512IFMAIntLoopILi31ELi1EEEvPDv8_xPKS2_S5_S2_S2_S2_S2_m
FN:425,_ZN5intel4hexl31EltwiseMultModAVX512IFMAIntLoopILi43ELi1EEEvPDv8_xPKS2_S5_S2_S2_S2_S2_m
FN:425,_ZN5intel4hexl31EltwiseMultModAVX512IFMAIntLoopILi41ELi1EEEvPDv8_xPKS2_S5_S2_S2_S2_S2_m
FN:425,_ZN5intel4hexl31EltwiseMultModAVX512IFMAIntLoopILi49ELi4EEEvPDv8_xPKS2_S5_S2_S2_S2_S2_m
FN:425,_ZN5intel4hexl31EltwiseMultModAVX512IFMAIntLoopILi51ELi1EEEvPDv8_xPKS2_S5_S2_S2_S2_S2_m
FN:425,_ZN5intel4hexl31EltwiseMultModAVX512IFMAIntLoopILi26ELi1EEEvPDv8_xPKS2_S5_S2_S2_S2_S2_m
FN:425,_ZN5intel4hexl31EltwiseMultModAVX512IFMAIntLoopILi22ELi1EEEvPDv8_xPKS2_S5_S2_S2_S2_S2_m
FN:425,_ZN5intel4hexl31EltwiseMultModAVX512IFMAIntLoopILi24ELi1EEEvPDv8_xPKS2_S5_S2_S2_S2_S2_m
FN:425,_ZN5intel4hexl31EltwiseMultModAVX512IFMAIntLoopILi27ELi1EEEvPDv8_xPKS2_S5_S2_S2_S2_S2_m
FN:425,_ZN5intel4hexl31EltwiseMultModAVX512IFMAIntLoopILi49ELi1EEEvPDv8_xPKS2_S5_S2_S2_S2_S2_m
FN:425,_ZN5intel4hexl31EltwiseMultModAVX512IFMAIntLoopILi40ELi1EEEvPDv8_xPKS2_S5_S2_S2_S2_S2_m
FN:425,_ZN5intel4hexl31EltwiseMultModAVX512IFMAIntLoopILi39ELi1EEEvPDv8_xPKS2_S5_S2_S2_S2_S2_m
FN:425,_ZN5intel4hexl31EltwiseMultModAVX512IFMAIntLoopILi23ELi1EEEvPDv8_xPKS2_S5_S2_S2_S2_S2_m
FN:425,_ZN5intel4hexl31EltwiseMultModAVX512IFMAIntLoopILi35ELi1EEEvPDv8_xPKS2_S5_S2_S2_S2_S2_m
FN:425,_ZN5intel4hexl31EltwiseMultModAVX512IFMAIntLoopILi33ELi1EEEvPDv8_xPKS2_S5_S2_S2_S2_S2_m
FN:425,_ZN5intel4hexl31EltwiseMultModAVX512IFMAIntLoopILi47ELi1EEEvPDv8_xPKS2_S5_S2_S2_S2_S2_m
FN:425,_ZN5intel4hexl31EltwiseMultModAVX512IFMAIntLoopILi42ELi1EEEvPDv8_xPKS2_S5_S2_S2_S2_S2_m
FN:425,_ZN5intel4hexl31EltwiseMultModAVX512IFMAIntLoopILi46ELi1EEEvPDv8_xPKS2_S5_S2_S2_S2_S2_m
FN:425,_ZN5intel4hexl31EltwiseMultModAVX512IFMAIntLoopILi17ELi1EEEvPDv8_xPKS2_S5_S2_S2_S2_S2_m
FN:425,_ZN5intel4hexl31EltwiseMultModAVX512IFMAIntLoopILi50ELi2EEEvPDv8_xPKS2_S5_S2_S2_S2_S2_m
FN:425,_ZN5intel4hexl31EltwiseMultModAVX512IFMAIntLoopILi20ELi1EEEvPDv8_xPKS2_S5_S2_S2_S2_S2_m
FN:425,_ZN5intel4hexl31EltwiseMultModAVX512IFMAIntLoopILi19ELi1EEEvPDv8_xPKS2_S5_S2_S2_S2_S2_m
FN:425,_ZN5intel4hexl31EltwiseMultModAVX512IFMAIntLoopILi16ELi1EEEvPDv8_xPKS2_S5_S2_S2_S2_S2_m
FN:425,_ZN5intel4hexl31EltwiseMultModAVX512IFMAIntLoopILi47ELi4EEEvPDv8_xPKS2_S5_S2_S2_S2_S2_m
FN:425,_ZN5intel4hexl31EltwiseMultModAVX512IFMAIntLoopILi49ELi2EEEvPDv8_xPKS2_S5_S2_S2_S2_S2_m
FN:425,_ZN5intel4hexl31EltwiseMultModAVX512IFMAIntLoopILi45ELi1EEEvPDv8_xPKS2_S5_S2_S2_S2_S2_m
FN:425,_ZN5intel4hexl31EltwiseMultModAVX512IFMAIntLoopILi50ELi1EEEvPDv8_xPKS2_S5_S2_S2_S2_S2_m
FN:425,_ZN5intel4hexl31EltwiseMultModAVX512IFMAIntLoopILi29ELi1EEEvPDv8_xPKS2_S5_S2_S2_S2_S2_m
FN:425,_ZN5intel4hexl31EltwiseMultModAVX512IFMAIntLoopILi34ELi1EEEvPDv8_xPKS2_S5_S2_S2_S2_S2_m
FN:425,_ZN5intel4hexl31EltwiseMultModAVX512IFMAIntLoopILi32ELi1EEEvPDv8_xPKS2_S5_S2_S2_S2_S2_m
FN:425,_ZN5intel4hexl31EltwiseMultModAVX512IFMAIntLoopILi28ELi1EEEvPDv8_xPKS2_S5_S2_S2_S2_S2_m
FN:425,_ZN5intel4hexl31EltwiseMultModAVX512IFMAIntLoopILi48ELi2EEEvPDv8_xPKS2_S5_S2_S2_S2_S2_m
FN:425,_ZN5intel4hexl31EltwiseMultModAVX512IFMAIntLoopILi25ELi1EEEvPDv8_xPKS2_S5_S2_S2_S2_S2_m
FN:425,_ZN5intel4hexl31EltwiseMultModAVX512IFMAIntLoopILi50ELi4EEEvPDv8_xPKS2_S5_S2_S2_S2_S2_m
FN:425,_ZN5intel4hexl31EltwiseMultModAVX512IFMAIntLoopILi15ELi1EEEvPDv8_xPKS2_S5_S2_S2_S2_S2_m
FN:425,_ZN5intel4hexl31EltwiseMultModAVX512IFMAIntLoopILi48ELi4EEEvPDv8_xPKS2_S5_S2_S2_S2_S2_m
FN:425,_ZN5intel4hexl31EltwiseMultModAVX512IFMAIntLoopILi48ELi1EEEvPDv8_xPKS2_S5_S2_S2_S2_S2_m
FN:425,_ZN5intel4hexl31EltwiseMultModAVX512IFMAIntLoopILi37ELi1EEEvPDv8_xPKS2_S5_S2_S2_S2_S2_m
FN:425,_ZN5intel4hexl31EltwiseMultModAVX512IFMAIntLoopILi38ELi1EEEvPDv8_xPKS2_S5_S2_S2_S2_S2_m
FN:486,_ZN5intel4hexl27EltwiseMultModAVX512IFMAIntILi2EEEvPmPKmS4_mm
FN:486,_ZN5intel4hexl27EltwiseMultModAVX512IFMAIntILi4EEEvPmPKmS4_mm
FN:486,_ZN5intel4hexl27EltwiseMultModAVX512IFMAIntILi1EEEvPmPKmS4_mm
FNDA:0,_ZN5intel4hexl31EltwiseMultModAVX512IFMAIntLoopILi27ELi1EEEvPDv8_xPKS2_S5_S2_S2_S2_S2_m
FNDA:0,_ZN5intel4hexl31EltwiseMultModAVX512IFMAIntLoopILi24ELi1EEEvPDv8_xPKS2_S5_S2_S2_S2_S2_m
FNDA:0,_ZN5intel4hexl37EltwiseMultModAVX512IFMAIntLoopUnrollILi26ELi1ELi2048EEEvPDv8_xPKS2_S5_S2_S2_S2_S2_
FNDA:30,_ZN5intel4hexl37EltwiseMultModAVX512IFMAIntLoopUnrollILi46ELi1ELi1024EEEvPDv8_xPKS2_S5_S2_S2_S2_S2_
FNDA:0,_ZN5intel4hexl38EltwiseMultModAVX512IFMAIntLoopDefaultILi48ELi4EEEvPDv8_xPKS2_S5_S2_S2_S2_S2_m
FNDA:30,_ZN5intel4hexl37EltwiseMultModAVX512IFMAIntLoopUnrollILi46ELi1ELi2048EEEvPDv8_xPKS2_S5_S2_S2_S2_S2_
FNDA:30,_ZN5intel4hexl37EltwiseMultModAVX512IFMAIntLoopUnrollILi45ELi1ELi32768EEEvPDv8_xPKS2_S5_S2_S2_S2_S2_
FNDA:0,_ZN5intel4hexl37EltwiseMultModAVX512IFMAIntLoopUnrollILi24ELi1ELi2048EEEvPDv8_xPKS2_S5_S2_S2_S2_S2_
FNDA:0,_ZN5intel4hexl31EltwiseMultModAVX512IFMAIntLoopILi22ELi1EEEvPDv8_xPKS2_S5_S2_S2_S2_S2_m
FNDA:0,_ZN5intel4hexl37EltwiseMultModAVX512IFMAIntLoopUnrollILi36ELi1ELi32768EEEvPDv8_xPKS2_S5_S2_S2_S2_S2_
FNDA:0,_ZN5intel4hexl37EltwiseMultModAVX512IFMAIntLoopUnrollILi36ELi1ELi2048EEEvPDv8_xPKS2_S5_S2_S2_S2_S2_
FNDA:30,_ZN5intel4hexl37EltwiseMultModAVX512IFMAIntLoopUnrollILi41ELi1ELi16384EEEvPDv8_xPKS2_S5_S2_S2_S2_S2_
FNDA:0,_ZN5intel4hexl38EltwiseMultModAVX512IFMAIntLoopDefaultILi47ELi4EEEvPDv8_xPKS2_S5_S2_S2_S2_S2_m
FNDA:60,_ZN5intel4hexl31EltwiseMultModAVX512IFMAIntLoopILi49ELi1EEEvPDv8_xPKS2_S5_S2_S2_S2_S2_m
FNDA:0,_ZN5intel4hexl37EltwiseMultModAVX512IFMAIntLoopUnrollILi16ELi1ELi16384EEEvPDv8_xPKS2_S5_S2_S2_S2_S2_
FNDA:30,_ZN5intel4hexl37EltwiseMultModAVX512IFMAIntLoopUnrollILi41ELi1ELi32768EEEvPDv8_xPKS2_S5_S2_S2_S2_S2_
FNDA:0,_ZN5intel4hexl37EltwiseMultModAVX512IFMAIntLoopUnrollILi29ELi1ELi2048EEEvPDv8_xPKS2_S5_S2_S2_S2_S2_
FNDA:0,_ZN5intel4hexl37EltwiseMultModAVX512IFMAIntLoopUnrollILi32ELi1ELi2048EEEvPDv8_xPKS2_S5_S2_S2_S2_S2_
FNDA:0,_ZN5intel4hexl37EltwiseMultModAVX512IFMAIntLoopUnrollILi49ELi4ELi1024EEEvPDv8_xPKS2_S5_S2_S2_S2_S2_
FNDA:30,_ZN5intel4hexl37EltwiseMultModAVX512IFMAIntLoopUnrollILi41ELi1ELi2048EEEvPDv8_xPKS2_S5_S2_S2_S2_S2_
FNDA:0,_ZN5intel4hexl37EltwiseMultModAVX512IFMAIntLoopUnrollILi28ELi1ELi32768EEEvPDv8_xPKS2_S5_S2_S2_S2_S2_
FNDA:0,_ZN5intel4hexl38EltwiseMultModAVX512IFMAIntLoopDefaultILi50ELi4EEEvPDv8_xPKS2_S5_S2_S2_S2_S2_m
FNDA:0,_ZN5intel4hexl37EltwiseMultModAVX512IFMAIntLoopUnrollILi31ELi1ELi8192EEEvPDv8_xPKS2_S5_S2_S2_S2_S2_
FNDA:0,_ZN5intel4hexl37EltwiseMultModAVX512IFMAIntLoopUnrollILi27ELi1ELi1024EEEvPDv8_xPKS2_S5_S2_S2_S2_S2_
FNDA:0,_ZN5intel4hexl37EltwiseMultModAVX512IFMAIntLoopUnrollILi29ELi1ELi8192EEEvPDv8_xPKS2_S5_S2_S2_S2_S2_
FNDA:0,_ZN5intel4hexl37EltwiseMultModAVX512IFMAIntLoopUnrollILi39ELi1ELi16384EEEvPDv8_xPKS2_S5_S2_S2_S2_S2_
FNDA:0,_ZN5intel4hexl31EltwiseMultModAVX512IFMAIntLoopILi39ELi1EEEvPDv8_xPKS2_S5_S2_S2_S2_S2_m
FNDA:0,_ZN5intel4hexl37EltwiseMultModAVX512IFMAIntLoopUnrollILi21ELi1ELi4096EEEvPDv8_xPKS2_S5_S2_S2_S2_S2_
FNDA:0,_ZN5intel4hexl37EltwiseMultModAVX512IFMAIntLoopUnrollILi39ELi1ELi2048EEEvPDv8_xPKS2_S5_S2_S2_S2_S2_
FNDA:0,_ZN5intel4hexl37EltwiseMultModAVX512IFMAIntLoopUnrollILi38ELi1ELi2048EEEvPDv8_xPKS2_S5_S2_S2_S2_S2_
FNDA:0,_ZN5intel4hexl37EltwiseMultModAVX512IFMAIntLoopUnrollILi23ELi1ELi32768EEEvPDv8_xPKS2_S5_S2_S2_S2_S2_
FNDA:0,_ZN5intel4hexl37EltwiseMultModAVX512IFMAIntLoopUnrollILi23ELi1ELi16384EEEvPDv8_xPKS2_S5_S2_S2_S2_S2_
FNDA:0,_ZN5intel4hexl31EltwiseMultModAVX512IFMAIntLoopILi40ELi1EEEvPDv8_xPKS2_S5_S2_S2_S2_S2_m
FNDA:0,_ZN5intel4hexl37EltwiseMultModAVX512IFMAIntLoopUnrollILi50ELi4ELi16384EEEvPDv8_xPKS2_S5_S2_S2_S2_S2_
FNDA:0,_ZN5intel4hexl37EltwiseMultModAVX512IFMAIntLoopUnrollILi35ELi1ELi16384EEEvPDv8_xPKS2_S5_S2_S2_S2_S2_
FNDA:30,_ZN5intel4hexl37EltwiseMultModAVX512IFMAIntLoopUnrollILi45ELi1ELi1024EEEvPDv8_xPKS2_S5_S2_S2_S2_S2_
FNDA:0,_ZN5intel4hexl37EltwiseMultModAVX512IFMAIntLoopUnrollILi50ELi4ELi1024EEEvPDv8_xPKS2_S5_S2_S2_S2_S2_
FNDA:0,_ZN5intel4hexl37EltwiseMultModAVX512IFMAIntLoopUnrollILi32ELi1ELi32768EEEvPDv8_xPKS2_S5_S2_S2_S2_S2_
FNDA:0,_ZN5intel4hexl37EltwiseMultModAVX512IFMAIntLoopUnrollILi33ELi1ELi2048EEEvPDv8_xPKS2_S5_S2_S2_S2_S2_
FNDA:0,_ZN5intel4hexl31EltwiseMultModAVX512IFMAIntLoopILi23ELi1EEEvPDv8_xPKS2_S5_S2_S2_S2_S2_m
FNDA:0,_ZN5intel4hexl38EltwiseMultModAVX512IFMAIntLoopDefaultILi50ELi2EEEvPDv8_xPKS2_S5_S2_S2_S2_S2_m
FNDA:0,_ZN5intel4hexl37EltwiseMultModAVX512IFMAIntLoopUnrollILi23ELi1ELi1024EEEvPDv8_xPKS2_S5_S2_S2_S2_S2_
FNDA:0,_ZN5intel4hexl37EltwiseMultModAVX512IFMAIntLoopUnrollILi25ELi1ELi2048EEEvPDv8_xPKS2_S5_S2_S2_S2_S2_
FNDA:30,_ZN5intel4hexl37EltwiseMultModAVX512IFMAIntLoopUnrollILi43ELi1ELi8192EEEvPDv8_xPKS2_S5_S2_S2_S2_S2_
FNDA:10,_ZN5intel4hexl37EltwiseMultModAVX512IFMAIntLoopUnrollILi49ELi1ELi1024EEEvPDv8_xPKS2_S5_S2_S2_S2_S2_
FNDA:30,_ZN5intel4hexl37EltwiseMultModAVX512IFMAIntLoopUnrollILi43ELi1ELi16384EEEvPDv8_xPKS2_S5_S2_S2_S2_S2_
FNDA:20,_ZN5intel4hexl37EltwiseMultModAVX512IFMAIntLoopUnrollILi48ELi1ELi16384EEEvPDv8_xPKS2_S5_S2_S2_S2_S2_
FNDA:30,_ZN5intel4hexl37EltwiseMultModAVX512IFMAIntLoopUnrollILi46ELi1ELi16384EEEvPDv8_xPKS2_S5_S2_S2_S2_S2_
FNDA:0,_ZN5intel4hexl37EltwiseMultModAVX512IFMAIntLoopUnrollILi47ELi2ELi2048EEEvPDv8_xPKS2_S5_S2_S2_S2_S2_
FNDA:0,_ZN5intel4hexl37EltwiseMultModAVX512IFMAIntLoopUnrollILi26ELi1ELi4096EEEvPDv8_xPKS2_S5_S2_S2_S2_S2_
FNDA:0,_ZN5intel4hexl37EltwiseMultModAVX512IFMAIntLoopUnrollILi50ELi2ELi2048EEEvPDv8_xPKS2_S5_S2_S2_S2_S2_
FNDA:10,_ZN5intel4hexl37EltwiseMultModAVX512IFMAIntLoopUnrollILi49ELi1ELi32768EEEvPDv8_xPKS2_S5_S2_S2_S2_S2_
FNDA:0,_ZN5intel4hexl37EltwiseMultModAVX512IFMAIntLoopUnrollILi22ELi1ELi32768EEEvPDv8_xPKS2_S5_S2_S2_S2_S2_
FNDA:120,_ZN5intel4hexl31EltwiseMultModAVX512IFMAIntLoopILi47ELi1EEEvPDv8_xPKS2_S5_S2_S2_S2_S2_m
FNDA:0,_ZN5intel4hexl31EltwiseMultModAVX512IFMAIntLoopILi33ELi1EEEvPDv8_xPKS2_S5_S2_S2_S2_S2_m
FNDA:0,_ZN5intel4hexl37EltwiseMultModAVX512IFMAIntLoopUnrollILi48ELi2ELi8192EEEvPDv8_xPKS2_S5_S2_S2_S2_S2_
FNDA:0,_ZN5intel4hexl37EltwiseMultModAVX512IFMAIntLoopUnrollILi22ELi1ELi2048EEEvPDv8_xPKS2_S5_S2_S2_S2_S2_
FNDA:10,_ZN5intel4hexl37EltwiseMultModAVX512IFMAIntLoopUnrollILi49ELi2ELi16384EEEvPDv8_xPKS2_S5_S2_S2_S2_S2_
FNDA:20,_ZN5intel4hexl37EltwiseMultModAVX512IFMAIntLoopUnrollILi47ELi1ELi4096EEEvPDv8_xPKS2_S5_S2_S2_S2_S2_
FNDA:0,_ZN5intel4hexl37EltwiseMultModAVX512IFMAIntLoopUnrollILi37ELi1ELi1024EEEvPDv8_xPKS2_S5_S2_S2_S2_S2_
FNDA:0,_ZN5intel4hexl31EltwiseMultModAVX512IFMAIntLoopILi35ELi1EEEvPDv8_xPKS2_S5_S2_S2_S2_S2_m
FNDA:0,_ZN5intel4hexl37EltwiseMultModAVX512IFMAIntLoopUnrollILi39ELi1ELi1024EEEvPDv8_xPKS2_S5_S2_S2_S2_S2_
FNDA:0,_ZN5intel4hexl37EltwiseMultModAVX512IFMAIntLoopUnrollILi47ELi2ELi16384EEEvPDv8_xPKS2_S5_S2_S2_S2_S2_
FNDA:0,_ZN5intel4hexl37EltwiseMultModAVX512IFMAIntLoopUnrollILi21ELi1ELi16384EEEvPDv8_xPKS2_S5_S2_S2_S2_S2_
FNDA:0,_ZN5intel4hexl37EltwiseMultModAVX512IFMAIntLoopUnrollILi25ELi1ELi8192EEEvPDv8_xPKS2_S5_S2_S2_S2_S2_
FNDA:0,_ZN5intel4hexl37EltwiseMultModAVX512IFMAIntLoopUnrollILi21ELi1ELi2048EEEvPDv8_xPKS2_S5_S2_S2_S2_S2_
FNDA:0,_ZN5intel4hexl38EltwiseMultModAVX512IFMAIntLoopDefaultILi1EEEvPDv8_xPKS2_S5_S2_S2_S2_S2_mm
FNDA:0,_ZN5intel4hexl37EltwiseMultModAVX512IFMAIntLoopUnrollILi51ELi1ELi1024EEEvPDv8_xPKS2_S5_S2_S2_S2_S2_
FNDA:0,_ZN5intel4hexl37EltwiseMultModAVX512IFMAIntLoopUnrollILi50ELi2ELi32768EEEvPDv8_xPKS2_S5_S2_S2_S2_S2_
FNDA:20,_ZN5intel4hexl37EltwiseMultModAVX512IFMAIntLoopUnrollILi48ELi1ELi4096EEEvPDv8_xPKS2_S5_S2_S2_S2_S2_
FNDA:30,_ZN5intel4hexl37EltwiseMultModAVX512IFMAIntLoopUnrollILi44ELi1ELi4096EEEvPDv8_xPKS2_S5_S2_S2_S2_S2_
FNDA:0,_ZN5intel4hexl37EltwiseMultModAVX512IFMAIntLoopUnrollILi40ELi1ELi4096EEEvPDv8_xPKS2_S5_S2_S2_S2_S2_
FNDA:0,_ZN5intel4hexl37EltwiseMultModAVX512IFMAIntLoopUnrollILi16ELi1ELi1024EEEvPDv8_xPKS2_S5_S2_S2_S2_S2_
FNDA:0,_ZN5intel4hexl37EltwiseMultModAVX512IFMAIntLoopUnrollILi48ELi2ELi4096EEEvPDv8_xPKS2_S5_S2_S2_S2_S2_
FNDA:10,_ZN5intel4hexl37EltwiseMultModAVX512IFMAIntLoopUnrollILi50ELi1ELi2048EEEvPDv8_xPKS2_S5_S2_S2_S2_S2_
FNDA:0,_ZN5intel4hexl37EltwiseMultModAVX512IFMAIntLoopUnrollILi19ELi1ELi16384EEEvPDv8_xPKS2_S5_S2_S2_S2_S2_
FNDA:0,_ZN5intel4hexl37EltwiseMultModAVX512IFMAIntLoopUnrollILi23ELi1ELi4096EEEvPDv8_xPKS2_S5_S2_S2_S2_S2_
FNDA:20,_ZN5intel4hexl37EltwiseMultModAVX512IFMAIntLoopUnrollILi47ELi1ELi8192EEEvPDv8_xPKS2_S5_S2_S2_S2_S2_
FNDA:0,_ZN5intel4hexl37EltwiseMultModAVX512IFMAIntLoopUnrollILi34ELi1ELi16384EEEvPDv8_xPKS2_S5_S2_S2_S2_S2_
FNDA:30,_ZN5intel4hexl37EltwiseMultModAVX512IFMAIntLoopUnrollILi46ELi1ELi8192EEEvPDv8_xPKS2_S5_S2_S2_S2_S2_
FNDA:480,_ZN5intel4hexl27EltwiseMultModAVX512IFMAIntILi4EEEvPmPKmS4_mm
FNDA:180,_ZN5intel4hexl31EltwiseMultModAVX512IFMAIntLoopILi42ELi1EEEvPDv8_xPKS2_S5_S2_S2_S2_S2_m
FNDA:0,_ZN5intel4hexl38EltwiseMultModAVX512IFMAIntLoopDefaultILi49ELi4EEEvPDv8_xPKS2_S5_S2_S2_S2_S2_m
FNDA:0,_ZN5intel4hexl37EltwiseMultModAVX512IFMAIntLoopUnrollILi34ELi1ELi8192EEEvPDv8_xPKS2_S5_S2_S2_S2_S2_
FNDA:30,_ZN5intel4hexl37EltwiseMultModAVX512IFMAIntLoopUnrollILi46ELi1ELi32768EEEvPDv8_xPKS2_S5_S2_S2_S2_S2_
FNDA:0,_ZN5intel4hexl37EltwiseMultModAVX512IFMAIntLoopUnrollILi27ELi1ELi2048EEEvPDv8_xPKS2_S5_S2_S2_S2_S2_
FNDA:180,_ZN5intel4hexl31EltwiseMultModAVX512IFMAIntLoopILi46ELi1EEEvPDv8_xPKS2_S5_S2_S2_S2_S2_m
FNDA:0,_ZN5intel4hexl37EltwiseMultModAVX512IFMAIntLoopUnrollILi15ELi1ELi1024EEEvPDv8_xPKS2_S5_S2_S2_S2_S2_
FNDA:0,_ZN5intel4hexl37EltwiseMultModAVX512IFMAIntLoopUnrollILi49ELi4ELi4096EEEvPDv8_xPKS2_S5_S2_S2_S2_S2_
FNDA:0,_ZN5intel4hexl37EltwiseMultModAVX512IFMAIntLoopUnrollILi37ELi1ELi16384EEEvPDv8_xPKS2_S5_S2_S2_S2_S2_
FNDA:30,_ZN5intel4hexl37EltwiseMultModAVX512IFMAIntLoopUnrollILi43ELi1ELi1024EEEvPDv8_xPKS2_S5_S2_S2_S2_S2_
FNDA:0,_ZN5intel4hexl37EltwiseMultModAVX512IFMAIntLoopUnrollILi48ELi2ELi16384EEEvPDv8_xPKS2_S5_S2_S2_S2_S2_
FNDA:10,_ZN5intel4hexl37EltwiseMultModAVX512IFMAIntLoopUnrollILi47ELi4ELi8192EEEvPDv8_xPKS2_S5_S2_S2_S2_S2_
FNDA:0,_ZN5intel4hexl37EltwiseMultModAVX512IFMAIntLoopUnrollILi15ELi1ELi4096EEEvPDv8_xPKS2_S5_S2_S2_S2_S2_
FNDA:0,_ZN5intel4hexl37EltwiseMultModAVX512IFMAIntLoopUnrollILi32ELi1ELi8192EEEvPDv8_xPKS2_S5_S2_S2_S2_S2_
FNDA:10,_ZN5intel4hexl37EltwiseMultModAVX512IFMAIntLoopUnrollILi47ELi4ELi1024EEEvPDv8_xPKS2_S5_S2_S2_S2_S2_
FNDA:0,_ZN5intel4hexl38EltwiseMultModAVX512IFMAIntLoopDefaultILi47ELi2EEEvPDv8_xPKS2_S5_S2_S2_S2_S2_m
FNDA:0,_ZN5intel4hexl37EltwiseMultModAVX512IFMAIntLoopUnrollILi50ELi4ELi32768EEEvPDv8_xPKS2_S5_S2_S2_S2_S2_
FNDA:0,_ZN5intel4hexl37EltwiseMultModAVX512IFMAIntLoopUnrollILi47ELi2ELi32768EEEvPDv8_xPKS2_S5_S2_S2_S2_S2_
FNDA:0,_ZN5intel4hexl31EltwiseMultModAVX512IFMAIntLoopILi18ELi1EEEvPDv8_xPKS2_S5_S2_S2_S2_S2_m
FNDA:0,_ZN5intel4hexl37EltwiseMultModAVX512IFMAIntLoopUnrollILi15ELi1ELi32768EEEvPDv8_xPKS2_S5_S2_S2_S2_S2_
FNDA:0,_ZN5intel4hexl37EltwiseMultModAVX512IFMAIntLoopUnrollILi20ELi1ELi1024EEEvPDv8_xPKS2_S5_S2_S2_S2_S2_
FNDA:0,_ZN5intel4hexl37EltwiseMultModAVX512IFMAIntLoopUnrollILi27ELi1ELi4096EEEvPDv8_xPKS2_S5_S2_S2_S2_S2_
FNDA:0,_ZN5intel4hexl37EltwiseMultModAVX512IFMAIntLoopUnrollILi39ELi1ELi4096EEEvPDv8_xPKS2_S5_S2_S2_S2_S2_
FNDA:0,_ZN5intel4hexl37EltwiseMultModAVX512IFMAIntLoopUnrollILi40ELi1ELi32768EEEvPDv8_xPKS2_S5_S2_S2_S2_S2_
FNDA:0,_ZN5intel4hexl37EltwiseMultModAVX512IFMAIntLoopUnrollILi36ELi1ELi1024EEEvPDv8_xPKS2_S5_S2_S2_S2_S2_
FNDA:10,_ZN5intel4hexl37EltwiseMultModAVX512IFMAIntLoopUnrollILi49ELi2ELi4096EEEvPDv8_xPKS2_S5_S2_S2_S2_S2_
FNDA:0,_ZN5intel4hexl37EltwiseMultModAVX512IFMAIntLoopUnrollILi48ELi2ELi1024EEEvPDv8_xPKS2_S5_S2_S2_S2_S2_
FNDA:180,_ZN5intel4hexl31EltwiseMultModAVX512IFMAIntLoopILi44ELi1EEEvPDv8_xPKS2_S5_S2_S2_S2_S2_m
FNDA:0,_ZN5intel4hexl37EltwiseMultModAVX512IFMAIntLoopUnrollILi24ELi1ELi16384EEEvPDv8_xPKS2_S5_S2_S2_S2_S2_
FNDA:0,_ZN5intel4hexl37EltwiseMultModAVX512IFMAIntLoopUnrollILi40ELi1ELi8192EEEvPDv8_xPKS2_S5_S2_S2_S2_S2_
FNDA:0,_ZN5intel4hexl37EltwiseMultModAVX512IFMAIntLoopUnrollILi23ELi1ELi2048EEEvPDv8_xPKS2_S5_S2_S2_S2_S2_
FNDA:0,_ZN5intel4hexl37EltwiseMultModAVX512IFMAIntLoopUnrollILi47ELi2ELi1024EEEvPDv8_xPKS2_S5_S2_S2_S2_S2_
FNDA:0,_ZN5intel4hexl37EltwiseMultModAVX512IFMAIntLoopUnrollILi50ELi4ELi2048EEEvPDv8_xPKS2_S5_S2_S2_S2_S2_
FNDA:0,_ZN5intel4hexl37EltwiseMultModAVX512IFMAIntLoopUnrollILi31ELi1ELi16384EEEvPDv8_xPKS2_S5_S2_S2_S2_S2_
FNDA:540,_ZN5intel4hexl27EltwiseMultModAVX512IFMAIntILi2EEEvPmPKmS4_mm
FNDA:10,_ZN5intel4hexl37EltwiseMultModAVX512IFMAIntLoopUnrollILi49ELi1ELi16384EEEvPDv8_xPKS2_S5_S2_S2_S2_S2_
FNDA:10,_ZN5intel4hexl37EltwiseMultModAVX512IFMAIntLoopUnrollILi50ELi1ELi8192EEEvPDv8_xPKS2_S5_S2_S2_S2_S2_
FNDA:0,_ZN5intel4hexl38EltwiseMultModAVX512IFMAIntLoopDefaultILi48ELi2EEEvPDv8_xPKS2_S5_S2_S2_S2_S2_m
FNDA:30,_ZN5intel4hexl37EltwiseMultModAVX512IFMAIntLoopUnrollILi46ELi1ELi4096EEEvPDv8_xPKS2_S5_S2_S2_S2_S2_
FNDA:0,_ZN5intel4hexl31EltwiseMultModAVX512IFMAIntLoopILi47ELi2EEEvPDv8_xPKS2_S5_S2_S2_S2_S2_m
FNDA:20,_ZN5intel4hexl37EltwiseMultModAVX512IFMAIntLoopUnrollILi48ELi1ELi1024EEEvPDv8_xPKS2_S5_S2_S2_S2_S2_
FNDA:0,_ZN5intel4hexl37EltwiseMultModAVX512IFMAIntLoopUnrollILi40ELi1ELi2048EEEvPDv8_xPKS2_S5_S2_S2_S2_S2_
FNDA:0,_ZN5intel4hexl31EltwiseMultModAVX512IFMAIntLoopILi21ELi1EEEvPDv8_xPKS2_S5_S2_S2_S2_S2_m
FNDA:0,_ZN5intel4hexl37EltwiseMultModAVX512IFMAIntLoopUnrollILi25ELi1ELi1024EEEvPDv8_xPKS2_S5_S2_S2_S2_S2_
FNDA:0,_ZN5intel4hexl37EltwiseMultModAVX512IFMAIntLoopUnrollILi37ELi1ELi32768EEEvPDv8_xPKS2_S5_S2_S2_S2_S2_
FNDA:0,_ZN5intel4hexl37EltwiseMultModAVX512IFMAIntLoopUnrollILi28ELi1ELi16384EEEvPDv8_xPKS2_S5_S2_S2_S2_S2_
FNDA:0,_ZN5intel4hexl31EltwiseMultModAVX512IFMAIntLoopILi31ELi1EEEvPDv8_xPKS2_S5_S2_S2_S2_S2_m
FNDA:0,_ZN5intel4hexl37EltwiseMultModAVX512IFMAIntLoopUnrollILi16ELi1ELi8192EEEvPDv8_xPKS2_S5_S2_S2_S2_S2_
FNDA:0,_ZN5intel4hexl37EltwiseMultModAVX512IFMAIntLoopUnrollILi50ELi2ELi4096EEEvPDv8_xPKS2_S5_S2_S2_S2_S2_
FNDA:0,_ZN5intel4hexl37EltwiseMultModAVX512IFMAIntLoopUnrollILi24ELi1ELi4096EEEvPDv8_xPKS2_S5_S2_S2_S2_S2_
FNDA:30,_ZN5intel4hexl37EltwiseMultModAVX512IFMAIntLoopUnrollILi42ELi1ELi8192EEEvPDv8_xPKS2_S5_S2_S2_S2_S2_
FNDA:0,_ZN5intel4hexl37EltwiseMultModAVX512IFMAIntLoopUnrollILi17ELi1ELi32768EEEvPDv8_xPKS2_S5_S2_S2_S2_S2_
FNDA:0,_ZN5intel4hexl31EltwiseMultModAVX512IFMAIntLoopILi36ELi1EEEvPDv8_xPKS2_S5_S2_S2_S2_S2_m
FNDA:0,_ZN5intel4hexl37EltwiseMultModAVX512IFMAIntLoopUnrollILi29ELi1ELi4096EEEvPDv8_xPKS2_S5_S2_S2_S2_S2_
FNDA:30,_ZN5intel4hexl37EltwiseMultModAVX512IFMAIntLoopUnrollILi43ELi1ELi2048EEEvPDv8_xPKS2_S5_S2_S2_S2_S2_
FNDA:0,_ZN5intel4hexl37EltwiseMultModAVX512IFMAIntLoopUnrollILi50ELi2ELi8192EEEvPDv8_xPKS2_S5_S2_S2_S2_S2_
FNDA:0,_ZN5intel4hexl37EltwiseMultModAVX512IFMAIntLoopUnrollILi26ELi1ELi1024EEEvPDv8_xPKS2_S5_S2_S2_S2_S2_
FNDA:10,_ZN5intel4hexl37EltwiseMultModAVX512IFMAIntLoopUnrollILi50ELi1ELi32768EEEvPDv8_xPKS2_S5_S2_S2_S2_S2_
FNDA:0,_ZN5intel4hexl37EltwiseMultModAVX512IFMAIntLoopUnrollILi32ELi1ELi16384EEEvPDv8_xPKS2_S5_S2_S2_S2_S2_
FNDA:0,_ZN5intel4hexl37EltwiseMultModAVX512IFMAIntLoopUnrollILi35ELi1ELi32768EEEvPDv8_xPKS2_S5_S2_S2_S2_S2_
FNDA:180,_ZN5intel4hexl31EltwiseMultModAVX512IFMAIntLoopILi41ELi1EEEvPDv8_xPKS2_S5_S2_S2_S2_S2_m
FNDA:10,_ZN5intel4hexl37EltwiseMultModAVX512IFMAIntLoopUnrollILi48ELi4ELi1024EEEvPDv8_xPKS2_S5_S2_S2_S2_S2_
FNDA:0,_ZN5intel4hexl37EltwiseMultModAVX512IFMAIntLoopUnrollILi27ELi1ELi8192EEEvPDv8_xPKS2_S5_S2_S2_S2_S2_
FNDA:10,_ZN5intel4hexl37EltwiseMultModAVX512IFMAIntLoopUnrollILi47ELi4ELi16384EEEvPDv8_xPKS2_S5_S2_S2_S2_S2_
FNDA:30,_ZN5intel4hexl37EltwiseMultModAVX512IFMAIntLoopUnrollILi41ELi1ELi8192EEEvPDv8_xPKS2_S5_S2_S2_S2_S2_
FNDA:30,_ZN5intel4hexl37EltwiseMultModAVX512IFMAIntLoopUnrollILi44ELi1ELi16384EEEvPDv8_xPKS2_S5_S2_S2_S2_S2_
FNDA:180,_ZN5intel4hexl31EltwiseMultModAVX512IFMAIntLoopILi43ELi1EEEvPDv8_xPKS2_S5_S2_S2_S2_S2_m
FNDA:0,_ZN5intel4hexl37EltwiseMultModAVX512IFMAIntLoopUnrollILi31ELi1ELi4096EEEvPDv8_xPKS2_S5_S2_S2_S2_S2_
FNDA:10,_ZN5intel4hexl37EltwiseMultModAVX512IFMAIntLoopUnrollILi47ELi4ELi2048EEEvPDv8_xPKS2_S5_S2_S2_S2_S2_
FNDA:30,_ZN5intel4hexl37EltwiseMultModAVX512IFMAIntLoopUnrollILi45ELi1ELi16384EEEvPDv8_xPKS2_S5_S2_S2_S2_S2_
FNDA:10,_ZN5intel4hexl37EltwiseMultModAVX512IFMAIntLoopUnrollILi48ELi4ELi8192EEEvPDv8_xPKS2_S5_S2_S2_S2_S2_
FNDA:0,_ZN5intel4hexl37EltwiseMultModAVX512IFMAIntLoopUnrollILi35ELi1ELi4096EEEvPDv8_xPKS2_S5_S2_S2_S2_S2_
FNDA:0,_ZN5intel4hexl37EltwiseMultModAVX512IFMAIntLoopUnrollILi38ELi1ELi32768EEEvPDv8_xPKS2_S5_S2_S2_S2_S2_
FNDA:0,_ZN5intel4hexl37EltwiseMultModAVX512IFMAIntLoopUnrollILi17ELi1ELi1024EEEvPDv8_xPKS2_S5_S2_S2_S2_S2_
FNDA:0,_ZN5intel4hexl37EltwiseMultModAVX512IFMAIntLoopUnrollILi33ELi1ELi4096EEEvPDv8_xPKS2_S5_S2_S2_S2_S2_
FNDA:30,_ZN5intel4hexl37EltwiseMultModAVX512IFMAIntLoopUnrollILi45ELi1ELi8192EEEvPDv8_xPKS2_S5_S2_S2_S2_S2_
FNDA:0,_ZN5intel4hexl37EltwiseMultModAVX512IFMAIntLoopUnrollILi26ELi1ELi16384EEEvPDv8_xPKS2_S5_S2_S2_S2_S2_
FNDA:0,_ZN5intel4hexl37EltwiseMultModAVX512IFMAIntLoopUnrollILi33ELi1ELi32768EEEvPDv8_xPKS2_S5_S2_S2_S2_S2_
FNDA:0,_ZN5intel4hexl31EltwiseMultModAVX512IFMAIntLoopILi49ELi4EEEvPDv8_xPKS2_S5_S2_S2_S2_S2_m
FNDA:0,_ZN5intel4hexl37EltwiseMultModAVX512IFMAIntLoopUnrollILi31ELi1ELi1024EEEvPDv8_xPKS2_S5_S2_S2_S2_S2_
FNDA:0,_ZN5intel4hexl37EltwiseMultModAVX512IFMAIntLoopUnrollILi24ELi1ELi1024EEEvPDv8_xPKS2_S5_S2_S2_S2_S2_
FNDA:0,_ZN5intel4hexl37EltwiseMultModAVX512IFMAIntLoopUnrollILi24ELi1ELi8192EEEvPDv8_xPKS2_S5_S2_S2_S2_S2_
FNDA:0,_ZN5intel4hexl37EltwiseMultModAVX512IFMAIntLoopUnrollILi34ELi1ELi1024EEEvPDv8_xPKS2_S5_S2_S2_S2_S2_
FNDA:0,_ZN5intel4hexl37EltwiseMultModAVX512IFMAIntLoopUnrollILi49ELi4ELi32768EEEvPDv8_xPKS2_S5_S2_S2_S2_S2_
FNDA:0,_ZN5intel4hexl31EltwiseMultModAVX512IFMAIntLoopILi26ELi1EEEvPDv8_xPKS2_S5_S2_S2_S2_S2_m
FNDA:0,_ZN5intel4hexl37EltwiseMultModAVX512IFMAIntLoopUnrollILi19ELi1ELi2048EEEvPDv8_xPKS2_S5_S2_S2_S2_S2_
FNDA:0,_ZN5intel4hexl37EltwiseMultModAVX512IFMAIntLoopUnrollILi20ELi1ELi8192EEEvPDv8_xPKS2_S5_S2_S2_S2_S2_
FNDA:0,_ZN5intel4hexl37EltwiseMultModAVX512IFMAIntLoopUnrollILi51ELi1ELi2048EEEvPDv8_xPKS2_S5_S2_S2_S2_S2_
FNDA:0,_ZN5intel4hexl37EltwiseMultModAVX512IFMAIntLoopUnrollILi17ELi1ELi4096EEEvPDv8_xPKS2_S5_S2_S2_S2_S2_
FNDA:30,_ZN5intel4hexl37EltwiseMultModAVX512IFMAIntLoopUnrollILi45ELi1ELi2048EEEvPDv8_xPKS2_S5_S2_S2_S2_S2_
FNDA:0,_ZN5intel4hexl37EltwiseMultModAVX512IFMAIntLoopUnrollILi21ELi1ELi1024EEEvPDv8_xPKS2_S5_S2_S2_S2_S2_
FNDA:0,_ZN5intel4hexl31EltwiseMultModAVX512IFMAIntLoopILi51ELi1EEEvPDv8_xPKS2_S5_S2_S2_S2_S2_m
FNDA:0,_ZN5intel4hexl37EltwiseMultModAVX512IFMAIntLoopUnrollILi22ELi1ELi4096EEEvPDv8_xPKS2_S5_S2_S2_S2_S2_
FNDA:0,_ZN5intel4hexl37EltwiseMultModAVX512IFMAIntLoopUnrollILi31ELi1ELi32768EEEvPDv8_xPKS2_S5_S2_S2_S2_S2_
FNDA:30,_ZN5intel4hexl37EltwiseMultModAVX512IFMAIntLoopUnrollILi43ELi1ELi4096EEEvPDv8_xPKS2_S5_S2_S2_S2_S2_
FNDA:10,_ZN5intel4hexl37EltwiseMultModAVX512IFMAIntLoopUnrollILi48ELi4ELi16384EEEvPDv8_xPKS2_S5_S2_S2_S2_S2_
FNDA:0,_ZN5intel4hexl37EltwiseMultModAVX512IFMAIntLoopUnrollILi35ELi1ELi2048EEEvPDv8_xPKS2_S5_S2_S2_S2_S2_
FNDA:0,_ZN5intel4hexl37EltwiseMultModAVX512IFMAIntLoopUnrollILi17ELi1ELi8192EEEvPDv8_xPKS2_S5_S2_S2_S2_S2_
FNDA:0,_ZN5intel4hexl37EltwiseMultModAVX512IFMAIntLoopUnrollILi18ELi1ELi32768EEEvPDv8_xPKS2_S5_S2_S2_S2_S2_
FNDA:0,_ZN5intel4hexl37EltwiseMultModAVX512IFMAIntLoopUnrollILi34ELi1ELi32768EEEvPDv8_xPKS2_S5_S2_S2_S2_S2_
FNDA:0,_ZN5intel4hexl37EltwiseMultModAVX512IFMAIntLoopUnrollILi18ELi1ELi1024EEEvPDv8_xPKS2_S5_S2_S2_S2_S2_
FNDA:10,_ZN5intel4hexl37EltwiseMultModAVX512IFMAIntLoopUnrollILi49ELi2ELi1024EEEvPDv8_xPKS2_S5_S2_S2_S2_S2_
FNDA:0,_ZN5intel4hexl37EltwiseMultModAVX512IFMAIntLoopUnrollILi15ELi1ELi16384EEEvPDv8_xPKS2_S5_S2_S2_S2_S2_
FNDA:30,_ZN5intel4hexl37EltwiseMultModAVX512IFMAIntLoopUnrollILi42ELi1ELi4096EEEvPDv8_xPKS2_S5_S2_S2_S2_S2_
FNDA:0,_ZN5intel4hexl37EltwiseMultModAVX512IFMAIntLoopUnrollILi37ELi1ELi2048EEEvPDv8_xPKS2_S5_S2_S2_S2_S2_
FNDA:30,_ZN5intel4hexl37EltwiseMultModAVX512IFMAIntLoopUnrollILi41ELi1ELi1024EEEvPDv8_xPKS2_S5_S2_S2_S2_S2_
FNDA:0,_ZN5intel4hexl37EltwiseMultModAVX512IFMAIntLoopUnrollILi33ELi1ELi8192EEEvPDv8_xPKS2_S5_S2_S2_S2_S2_
FNDA:10,_ZN5intel4hexl37EltwiseMultModAVX512IFMAIntLoopUnrollILi50ELi1ELi1024EEEvPDv8_xPKS2_S5_S2_S2_S2_S2_
FNDA:0,_ZN5intel4hexl31EltwiseMultModAVX512IFMAIntLoopILi48ELi2EEEvPDv8_xPKS2_S5_S2_S2_S2_S2_m
FNDA:0,_ZN5intel4hexl37EltwiseMultModAVX512IFMAIntLoopUnrollILi28ELi1ELi4096EEEvPDv8_xPKS2_S5_S2_S2_S2_S2_
FNDA:20,_ZN5intel4hexl37EltwiseMultModAVX512IFMAIntLoopUnrollILi47ELi1ELi16384EEEvPDv8_xPKS2_S5_S2_S2_S2_S2_
FNDA:0,_ZN5intel4hexl37EltwiseMultModAVX512IFMAIntLoopUnrollILi47ELi2ELi8192EEEvPDv8_xPKS2_S5_S2_S2_S2_S2_
FNDA:0,_ZN5intel4hexl37EltwiseMultModAVX512IFMAIntLoopUnrollILi15ELi1ELi8192EEEvPDv8_xPKS2_S5_S2_S2_S2_S2_
FNDA:0,_ZN5intel4hexl37EltwiseMultModAVX512IFMAIntLoopUnrollILi32ELi1ELi1024EEEvPDv8_xPKS2_S5_S2_S2_S2_S2_
FNDA:0,_ZN5intel4hexl31EltwiseMultModAVX512IFMAIntLoopILi15ELi1EEEvPDv8_xPKS2_S5_S2_S2_S2_S2_m
FNDA:10,_ZN5intel4hexl37EltwiseMultModAVX512IFMAIntLoopUnrollILi47ELi4ELi32768EEEvPDv8_xPKS2_S5_S2_S2_S2_S2_
FNDA:20,_ZN5intel4hexl37EltwiseMultModAVX512IFMAIntLoopUnrollILi47ELi1ELi1024EEEvPDv8_xPKS2_S5_S2_S2_S2_S2_
FNDA:0,_ZN5intel4hexl37EltwiseMultModAVX512IFMAIntLoopUnrollILi19ELi1ELi1024EEEvPDv8_xPKS2_S5_S2_S2_S2_S2_
FNDA:0,_ZN5intel4hexl37EltwiseMultModAVX512IFMAIntLoopUnrollILi28ELi1ELi1024EEEvPDv8_xPKS2_S5_S2_S2_S2_S2_
FNDA:0,_ZN5intel4hexl31EltwiseMultModAVX512IFMAIntLoopILi50ELi4EEEvPDv8_xPKS2_S5_S2_S2_S2_S2_m
FNDA:0,_ZN5intel4hexl31EltwiseMultModAVX512IFMAIntLoopILi25ELi1EEEvPDv8_xPKS2_S5_S2_S2_S2_S2_m
FNDA:10,_ZN5intel4hexl37EltwiseMultModAVX512IFMAIntLoopUnrollILi49ELi2ELi2048EEEvPDv8_xPKS2_S5_S2_S2_S2_S2_
FNDA:0,_ZN5intel4hexl37EltwiseMultModAVX512IFMAIntLoopUnrollILi36ELi1ELi8192EEEvPDv8_xPKS2_S5_S2_S2_S2_S2_
FNDA:0,_ZN5intel4hexl37EltwiseMultModAVX512IFMAIntLoopUnrollILi27ELi1ELi32768EEEvPDv8_xPKS2_S5_S2_S2_S2_S2_
FNDA:60,_ZN5intel4hexl31EltwiseMultModAVX512IFMAIntLoopILi48ELi4EEEvPDv8_xPKS2_S5_S2_S2_S2_S2_m
FNDA:0,_ZN5intel4hexl37EltwiseMultModAVX512IFMAIntLoopUnrollILi20ELi1ELi32768EEEvPDv8_xPKS2_S5_S2_S2_S2_S2_
FNDA:0,_ZN5intel4hexl37EltwiseMultModAVX512IFMAIntLoopUnrollILi31ELi1ELi2048EEEvPDv8_xPKS2_S5_S2_S2_S2_S2_
FNDA:0,_ZN5intel4hexl37EltwiseMultModAVX512IFMAIntLoopUnrollILi50ELi2ELi16384EEEvPDv8_xPKS2_S5_S2_S2_S2_S2_
FNDA:0,_ZN5intel4hexl37EltwiseMultModAVX512IFMAIntLoopUnrollILi49ELi4ELi2048EEEvPDv8_xPKS2_S5_S2_S2_S2_S2_
FNDA:10,_ZN5intel4hexl37EltwiseMultModAVX512IFMAIntLoopUnrollILi47ELi4ELi4096EEEvPDv8_xPKS2_S5_S2_S2_S2_S2_
FNDA:0,_ZN5intel4hexl37EltwiseMultModAVX512IFMAIntLoopUnrollILi27ELi1ELi16384EEEvPDv8_xPKS2_S5_S2_S2_S2_S2_
FNDA:30,_ZN5intel4hexl37EltwiseMultModAVX512IFMAIntLoopUnrollILi44ELi1ELi32768EEEvPDv8_xPKS2_S5_S2_S2_S2_S2_
FNDA:10,_ZN5intel4hexl37EltwiseMultModAVX512IFMAIntLoopUnrollILi50ELi1ELi4096EEEvPDv8_xPKS2_S5_S2_S2_S2_S2_
FNDA:0,_ZN5intel4hexl37EltwiseMultModAVX512IFMAIntLoopUnrollILi34ELi1ELi2048EEEvPDv8_xPKS2_S5_S2_S2_S2_S2_
FNDA:120,_ZN5intel4hexl31EltwiseMultModAVX512IFMAIntLoopILi48ELi1EEEvPDv8_xPKS2_S5_S2_S2_S2_S2_m
FNDA:10,_ZN5intel4hexl37EltwiseMultModAVX512IFMAIntLoopUnrollILi48ELi4ELi4096EEEvPDv8_xPKS2_S5_S2_S2_S2_S2_
FNDA:0,_ZN5intel4hexl37EltwiseMultModAVX512IFMAIntLoopUnrollILi37ELi1ELi4096EEEvPDv8_xPKS2_S5_S2_S2_S2_S2_
FNDA:0,_ZN5intel4hexl37EltwiseMultModAVX512IFMAIntLoopUnrollILi29ELi1ELi32768EEEvPDv8_xPKS2_S5_S2_S2_S2_S2_
FNDA:0,_ZN5intel4hexl37EltwiseMultModAVX512IFMAIntLoopUnrollILi19ELi1ELi4096EEEvPDv8_xPKS2_S5_S2_S2_S2_S2_
FNDA:0,_ZN5intel4hexl37EltwiseMultModAVX512IFMAIntLoopUnrollILi50ELi4ELi8192EEEvPDv8_xPKS2_S5_S2_S2_S2_S2_
FNDA:0,_ZN5intel4hexl37EltwiseMultModAVX512IFMAIntLoopUnrollILi35ELi1ELi8192EEEvPDv8_xPKS2_S5_S2_S2_S2_S2_
FNDA:0,_ZN5intel4hexl37EltwiseMultModAVX512IFMAIntLoopUnrollILi22ELi1ELi1024EEEvPDv8_xPKS2_S5_S2_S2_S2_S2_
FNDA:0,_ZN5intel4hexl37EltwiseMultModAVX512IFMAIntLoopUnrollILi34ELi1ELi4096EEEvPDv8_xPKS2_S5_S2_S2_S2_S2_
FNDA:0,_ZN5intel4hexl37EltwiseMultModAVX512IFMAIntLoopUnrollILi49ELi4ELi8192EEEvPDv8_xPKS2_S5_S2_S2_S2_S2_
FNDA:0,_ZN5intel4hexl37EltwiseMultModAVX512IFMAIntLoopUnrollILi35ELi1ELi1024EEEvPDv8_xPKS2_S5_S2_S2_S2_S2_
FNDA:10,_ZN5intel4hexl37EltwiseMultModAVX512IFMAIntLoopUnrollILi49ELi2ELi8192EEEvPDv8_xPKS2_S5_S2_S2_S2_S2_
FNDA:0,_ZN5intel4hexl37EltwiseMultModAVX512IFMAIntLoopUnrollILi50ELi2ELi1024EEEvPDv8_xPKS2_S5_S2_S2_S2_S2_
FNDA:0,_ZN5intel4hexl37EltwiseMultModAVX512IFMAIntLoopUnrollILi48ELi2ELi2048EEEvPDv8_xPKS2_S5_S2_S2_S2_S2_
FNDA:0,_ZN5intel4hexl37EltwiseMultModAVX512IFMAIntLoopUnrollILi40ELi1ELi16384EEEvPDv8_xPKS2_S5_S2_S2_S2_S2_
FNDA:0,_ZN5intel4hexl31EltwiseMultModAVX512IFMAIntLoopILi38ELi1EEEvPDv8_xPKS2_S5_S2_S2_S2_S2_m
FNDA:0,_ZN5intel4hexl37EltwiseMultModAVX512IFMAIntLoopUnrollILi38ELi1ELi4096EEEvPDv8_xPKS2_S5_S2_S2_S2_S2_
FNDA:0,_ZN5intel4hexl37EltwiseMultModAVX512IFMAIntLoopUnrollILi24ELi1ELi32768EEEvPDv8_xPKS2_S5_S2_S2_S2_S2_
FNDA:0,_ZN5intel4hexl31EltwiseMultModAVX512IFMAIntLoopILi37ELi1EEEvPDv8_xPKS2_S5_S2_S2_S2_S2_m
FNDA:0,_ZN5intel4hexl37EltwiseMultModAVX512IFMAIntLoopUnrollILi21ELi1ELi32768EEEvPDv8_xPKS2_S5_S2_S2_S2_S2_
FNDA:0,_ZN5intel4hexl37EltwiseMultModAVX512IFMAIntLoopUnrollILi19ELi1ELi32768EEEvPDv8_xPKS2_S5_S2_S2_S2_S2_
FNDA:0,_ZN5intel4hexl37EltwiseMultModAVX512IFMAIntLoopUnrollILi16ELi1ELi32768EEEvPDv8_xPKS2_S5_S2_S2_S2_S2_
FNDA:0,_ZN5intel4hexl37EltwiseMultModAVX512IFMAIntLoopUnrollILi26ELi1ELi32768EEEvPDv8_xPKS2_S5_S2_S2_S2_S2_
FNDA:0,_ZN5intel4hexl37EltwiseMultModAVX512IFMAIntLoopUnrollILi18ELi1ELi2048EEEvPDv8_xPKS2_S5_S2_S2_S2_S2_
FNDA:10,_ZN5intel4hexl37EltwiseMultModAVX512IFMAIntLoopUnrollILi49ELi1ELi8192EEEvPDv8_xPKS2_S5_S2_S2_S2_S2_
FNDA:10,_ZN5intel4hexl37EltwiseMultModAVX512IFMAIntLoopUnrollILi50ELi1ELi16384EEEvPDv8_xPKS2_S5_S2_S2_S2_S2_
FNDA:0,_ZN5intel4hexl37EltwiseMultModAVX512IFMAIntLoopUnrollILi20ELi1ELi16384EEEvPDv8_xPKS2_S5_S2_S2_S2_S2_
FNDA:10,_ZN5intel4hexl37EltwiseMultModAVX512IFMAIntLoopUnrollILi49ELi1ELi2048EEEvPDv8_xPKS2_S5_S2_S2_S2_S2_
FNDA:0,_ZN5intel4hexl37EltwiseMultModAVX512IFMAIntLoopUnrollILi51ELi1ELi4096EEEvPDv8_xPKS2_S5_S2_S2_S2_S2_
FNDA:0,_ZN5intel4hexl37EltwiseMultModAVX512IFMAIntLoopUnrollILi39ELi1ELi8192EEEvPDv8_xPKS2_S5_S2_S2_S2_S2_
FNDA:10,_ZN5intel4hexl37EltwiseMultModAVX512IFMAIntLoopUnrollILi49ELi1ELi4096EEEvPDv8_xPKS2_S5_S2_S2_S2_S2_
FNDA:0,_ZN5intel4hexl37EltwiseMultModAVX512IFMAIntLoopUnrollILi37ELi1ELi8192EEEvPDv8_xPKS2_S5_S2_S2_S2_S2_
FNDA:30,_ZN5intel4hexl37EltwiseMultModAVX512IFMAIntLoopUnrollILi42ELi1ELi1024EEEvPDv8_xPKS2_S5_S2_S2_S2_S2_
FNDA:0,_ZN5intel4hexl31EltwiseMultModAVX512IFMAIntLoopILi17ELi1EEEvPDv8_xPKS2_S5_S2_S2_S2_S2_m
FNDA:0,_ZN5intel4hexl37EltwiseMultModAVX512IFMAIntLoopUnrollILi40ELi1ELi1024EEEvPDv8_xPKS2_S5_S2_S2_S2_S2_
FNDA:0,_ZN5intel4hexl37EltwiseMultModAVX512IFMAIntLoopUnrollILi49ELi4ELi16384EEEvPDv8_xPKS2_S5_S2_S2_S2_S2_
FNDA:0,_ZN5intel4hexl37EltwiseMultModAVX512IFMAIntLoopUnrollILi20ELi1ELi2048EEEvPDv8_xPKS2_S5_S2_S2_S2_S2_
FNDA:0,_ZN5intel4hexl31EltwiseMultModAVX512IFMAIntLoopILi19ELi1EEEvPDv8_xPKS2_S5_S2_S2_S2_S2_m
FNDA:0,_ZN5intel4hexl31EltwiseMultModAVX512IFMAIntLoopILi20ELi1EEEvPDv8_xPKS2_S5_S2_S2_S2_S2_m
FNDA:10,_ZN5intel4hexl37EltwiseMultModAVX512IFMAIntLoopUnrollILi49ELi2ELi32768EEEvPDv8_xPKS2_S5_S2_S2_S2_S2_
FNDA:0,_ZN5intel4hexl31EltwiseMultModAVX512IFMAIntLoopILi50ELi2EEEvPDv8_xPKS2_S5_S2_S2_S2_S2_m
FNDA:0,_ZN5intel4hexl37EltwiseMultModAVX512IFMAIntLoopUnrollILi29ELi1ELi16384EEEvPDv8_xPKS2_S5_S2_S2_S2_S2_
FNDA:0,_ZN5intel4hexl37EltwiseMultModAVX512IFMAIntLoopUnrollILi51ELi1ELi32768EEEvPDv8_xPKS2_S5_S2_S2_S2_S2_
FNDA:0,_ZN5intel4hexl37EltwiseMultModAVX512IFMAIntLoopUnrollILi16ELi1ELi2048EEEvPDv8_xPKS2_S5_S2_S2_S2_S2_
FNDA:0,_ZN5intel4hexl37EltwiseMultModAVX512IFMAIntLoopUnrollILi33ELi1ELi16384EEEvPDv8_xPKS2_S5_S2_S2_S2_S2_
FNDA:30,_ZN5intel4hexl37EltwiseMultModAVX512IFMAIntLoopUnrollILi42ELi1ELi32768EEEvPDv8_xPKS2_S5_S2_S2_S2_S2_
FNDA:0,_ZN5intel4hexl37EltwiseMultModAVX512IFMAIntLoopUnrollILi18ELi1ELi4096EEEvPDv8_xPKS2_S5_S2_S2_S2_S2_
FNDA:0,_ZN5intel4hexl37EltwiseMultModAVX512IFMAIntLoopUnrollILi39ELi1ELi32768EEEvPDv8_xPKS2_S5_S2_S2_S2_S2_
FNDA:0,_ZN5intel4hexl37EltwiseMultModAVX512IFMAIntLoopUnrollILi22ELi1ELi8192EEEvPDv8_xPKS2_S5_S2_S2_S2_S2_
FNDA:60,_ZN5intel4hexl31EltwiseMultModAVX512IFMAIntLoopILi47ELi4EEEvPDv8_xPKS2_S5_S2_S2_S2_S2_m
FNDA:0,_ZN5intel4hexl37EltwiseMultModAVX512IFMAIntLoopUnrollILi25ELi1ELi4096EEEvPDv8_xPKS2_S5_S2_S2_S2_S2_
FNDA:10,_ZN5intel4hexl37EltwiseMultModAVX512IFMAIntLoopUnrollILi48ELi4ELi2048EEEvPDv8_xPKS2_S5_S2_S2_S2_S2_
FNDA:20,_ZN5intel4hexl37EltwiseMultModAVX512IFMAIntLoopUnrollILi47ELi1ELi2048EEEvPDv8_xPKS2_S5_S2_S2_S2_S2_
FNDA:0,_ZN5intel4hexl37EltwiseMultModAVX512IFMAIntLoopUnrollILi17ELi1ELi2048EEEvPDv8_xPKS2_S5_S2_S2_S2_S2_
FNDA:0,_ZN5intel4hexl37EltwiseMultModAVX512IFMAIntLoopUnrollILi17ELi1ELi16384EEEvPDv8_xPKS2_S5_S2_S2_S2_S2_
FNDA:0,_ZN5intel4hexl31EltwiseMultModAVX512IFMAIntLoopILi16ELi1EEEvPDv8_xPKS2_S5_S2_S2_S2_S2_m
FNDA:30,_ZN5intel4hexl37EltwiseMultModAVX512IFMAIntLoopUnrollILi41ELi1ELi4096EEEvPDv8_xPKS2_S5_S2_S2_S2_S2_
FNDA:30,_ZN5intel4hexl37EltwiseMultModAVX512IFMAIntLoopUnrollILi42ELi1ELi16384EEEvPDv8_xPKS2_S5_S2_S2_S2_S2_
FNDA:0,_ZN5intel4hexl37EltwiseMultModAVX512IFMAIntLoopUnrollILi23ELi1ELi8192EEEvPDv8_xPKS2_S5_S2_S2_S2_S2_
FNDA:0,_ZN5intel4hexl37EltwiseMultModAVX512IFMAIntLoopUnrollILi51ELi1ELi16384EEEvPDv8_xPKS2_S5_S2_S2_S2_S2_
FNDA:30,_ZN5intel4hexl37EltwiseMultModAVX512IFMAIntLoopUnrollILi45ELi1ELi4096EEEvPDv8_xPKS2_S5_S2_S2_S2_S2_
FNDA:0,_ZN5intel4hexl37EltwiseMultModAVX512IFMAIntLoopUnrollILi25ELi1ELi16384EEEvPDv8_xPKS2_S5_S2_S2_S2_S2_
FNDA:0,_ZN5intel4hexl37EltwiseMultModAVX512IFMAIntLoopUnrollILi29ELi1ELi1024EEEvPDv8_xPKS2_S5_S2_S2_S2_S2_
FNDA:30,_ZN5intel4hexl37EltwiseMultModAVX512IFMAIntLoopUnrollILi44ELi1ELi8192EEEvPDv8_xPKS2_S5_S2_S2_S2_S2_
FNDA:30,_ZN5intel4hexl37EltwiseMultModAVX512IFMAIntLoopUnrollILi42ELi1ELi2048EEEvPDv8_xPKS2_S5_S2_S2_S2_S2_
FNDA:0,_ZN5intel4hexl37EltwiseMultModAVX512IFMAIntLoopUnrollILi47ELi2ELi4096EEEvPDv8_xPKS2_S5_S2_S2_S2_S2_
FNDA:180,_ZN5intel4hexl31EltwiseMultModAVX512IFMAIntLoopILi45ELi1EEEvPDv8_xPKS2_S5_S2_S2_S2_S2_m
FNDA:10,_ZN5intel4hexl37EltwiseMultModAVX512IFMAIntLoopUnrollILi48ELi4ELi32768EEEvPDv8_xPKS2_S5_S2_S2_S2_S2_
FNDA:60,_ZN5intel4hexl31EltwiseMultModAVX512IFMAIntLoopILi49ELi2EEEvPDv8_xPKS2_S5_S2_S2_S2_S2_m
FNDA:20,_ZN5intel4hexl37EltwiseMultModAVX512IFMAIntLoopUnrollILi48ELi1ELi32768EEEvPDv8_xPKS2_S5_S2_S2_S2_S2_
FNDA:0,_ZN5intel4hexl37EltwiseMultModAVX512IFMAIntLoopUnrollILi32ELi1ELi4096EEEvPDv8_xPKS2_S5_S2_S2_S2_S2_
FNDA:20,_ZN5intel4hexl37EltwiseMultModAVX512IFMAIntLoopUnrollILi48ELi1ELi8192EEEvPDv8_xPKS2_S5_S2_S2_S2_S2_
FNDA:0,_ZN5intel4hexl37EltwiseMultModAVX512IFMAIntLoopUnrollILi36ELi1ELi4096EEEvPDv8_xPKS2_S5_S2_S2_S2_S2_
FNDA:0,_ZN5intel4hexl38EltwiseMultModAVX512IFMAIntLoopDefaultILi49ELi2EEEvPDv8_xPKS2_S5_S2_S2_S2_S2_m
FNDA:0,_ZN5intel4hexl37EltwiseMultModAVX512IFMAIntLoopUnrollILi16ELi1ELi4096EEEvPDv8_xPKS2_S5_S2_S2_S2_S2_
FNDA:0,_ZN5intel4hexl37EltwiseMultModAVX512IFMAIntLoopUnrollILi38ELi1ELi8192EEEvPDv8_xPKS2_S5_S2_S2_S2_S2_
FNDA:0,_ZN5intel4hexl37EltwiseMultModAVX512IFMAIntLoopUnrollILi26ELi1ELi8192EEEvPDv8_xPKS2_S5_S2_S2_S2_S2_
FNDA:0,_ZN5intel4hexl37EltwiseMultModAVX512IFMAIntLoopUnrollILi38ELi1ELi16384EEEvPDv8_xPKS2_S5_S2_S2_S2_S2_
FNDA:0,_ZN5intel4hexl37EltwiseMultModAVX512IFMAIntLoopUnrollILi48ELi2ELi32768EEEvPDv8_xPKS2_S5_S2_S2_S2_S2_
FNDA:60,_ZN5intel4hexl31EltwiseMultModAVX512IFMAIntLoopILi50ELi1EEEvPDv8_xPKS2_S5_S2_S2_S2_S2_m
FNDA:30,_ZN5intel4hexl37EltwiseMultModAVX512IFMAIntLoopUnrollILi44ELi1ELi2048EEEvPDv8_xPKS2_S5_S2_S2_S2_S2_
FNDA:0,_ZN5intel4hexl37EltwiseMultModAVX512IFMAIntLoopUnrollILi28ELi1ELi2048EEEvPDv8_xPKS2_S5_S2_S2_S2_S2_
FNDA:0,_ZN5intel4hexl37EltwiseMultModAVX512IFMAIntLoopUnrollILi33ELi1ELi1024EEEvPDv8_xPKS2_S5_S2_S2_S2_S2_
FNDA:20,_ZN5intel4hexl37EltwiseMultModAVX512IFMAIntLoopUnrollILi47ELi1ELi32768EEEvPDv8_xPKS2_S5_S2_S2_S2_S2_
FNDA:0,_ZN5intel4hexl37EltwiseMultModAVX512IFMAIntLoopUnrollILi21ELi1ELi8192EEEvPDv8_xPKS2_S5_S2_S2_S2_S2_
FNDA:0,_ZN5intel4hexl37EltwiseMultModAVX512IFMAIntLoopUnrollILi28ELi1ELi8192EEEvPDv8_xPKS2_S5_S2_S2_S2_S2_
FNDA:0,_ZN5intel4hexl37EltwiseMultModAVX512IFMAIntLoopUnrollILi15ELi1ELi2048EEEvPDv8_xPKS2_S5_S2_S2_S2_S2_
FNDA:0,_ZN5intel4hexl37EltwiseMultModAVX512IFMAIntLoopUnrollILi51ELi1ELi8192EEEvPDv8_xPKS2_S5_S2_S2_S2_S2_
FNDA:0,_ZN5intel4hexl37EltwiseMultModAVX512IFMAIntLoopUnrollILi19ELi1ELi8192EEEvPDv8_xPKS2_S5_S2_S2_S2_S2_
FNDA:0,_ZN5intel4hexl31EltwiseMultModAVX512IFMAIntLoopILi32ELi1EEEvPDv8_xPKS2_S5_S2_S2_S2_S2_m
FNDA:0,_ZN5intel4hexl31EltwiseMultModAVX512IFMAIntLoopILi28ELi1EEEvPDv8_xPKS2_S5_S2_S2_S2_S2_m
FNDA:0,_ZN5intel4hexl37EltwiseMultModAVX512IFMAIntLoopUnrollILi36ELi1ELi16384EEEvPDv8_xPKS2_S5_S2_S2_S2_S2_
FNDA:0,_ZN5intel4hexl37EltwiseMultModAVX512IFMAIntLoopUnrollILi18ELi1ELi16384EEEvPDv8_xPKS2_S5_S2_S2_S2_S2_
FNDA:0,_ZN5intel4hexl37EltwiseMultModAVX512IFMAIntLoopUnrollILi38ELi1ELi1024EEEvPDv8_xPKS2_S5_S2_S2_S2_S2_
FNDA:30,_ZN5intel4hexl37EltwiseMultModAVX512IFMAIntLoopUnrollILi43ELi1ELi32768EEEvPDv8_xPKS2_S5_S2_S2_S2_S2_
FNDA:0,_ZN5intel4hexl37EltwiseMultModAVX512IFMAIntLoopUnrollILi25ELi1ELi32768EEEvPDv8_xPKS2_S5_S2_S2_S2_S2_
FNDA:0,_ZN5intel4hexl37EltwiseMultModAVX512IFMAIntLoopUnrollILi20ELi1ELi4096EEEvPDv8_xPKS2_S5_S2_S2_S2_S2_
FNDA:600,_ZN5intel4hexl27EltwiseMultModAVX512IFMAIntILi1EEEvPmPKmS4_mm
FNDA:0,_ZN5intel4hexl37EltwiseMultModAVX512IFMAIntLoopUnrollILi22ELi1ELi16384EEEvPDv8_xPKS2_S5_S2_S2_S2_S2_
FNDA:0,_ZN5intel4hexl31EltwiseMultModAVX512IFMAIntLoopILi34ELi1EEEvPDv8_xPKS2_S5_S2_S2_S2_S2_m
FNDA:0,_ZN5intel4hexl31EltwiseMultModAVX512IFMAIntLoopILi29ELi1EEEvPDv8_xPKS2_S5_S2_S2_S2_S2_m
FNDA:0,_ZN5intel4hexl37EltwiseMultModAVX512IFMAIntLoopUnrollILi50ELi4ELi4096EEEvPDv8_xPKS2_S5_S2_S2_S2_S2_
FNDA:30,_ZN5intel4hexl37EltwiseMultModAVX512IFMAIntLoopUnrollILi44ELi1ELi1024EEEvPDv8_xPKS2_S5_S2_S2_S2_S2_
FNDA:0,_ZN5intel4hexl37EltwiseMultModAVX512IFMAIntLoopUnrollILi18ELi1ELi8192EEEvPDv8_xPKS2_S5_S2_S2_S2_S2_
FNDA:20,_ZN5intel4hexl37EltwiseMultModAVX512IFMAIntLoopUnrollILi48ELi1ELi2048EEEvPDv8_xPKS2_S5_S2_S2_S2_S2_
FNF:320
FNH:94
DA:37,1620
DA:43,1620
DA:44,1620
DA:45,1620
DA:53,1620
DA:54,1620
DA:55,1620
DA:59,137700
DA:60,136080
DA:61,136080
DA:62,136080
DA:63,136080
DA:64,136080
DA:65,136080
DA:66,136080
DA:67,136080
DA:68,136080
DA:69,136080
DA:70,136080
DA:71,136080
DA:72,136080
DA:73,136080
DA:74,136080
DA:75,136080
DA:76,136080
DA:77,136080
DA:78,136080
DA:79,136080
DA:80,136080
DA:81,136080
DA:82,136080
DA:83,136080
DA:84,136080
DA:85,136080
DA:86,136080
DA:87,136080
DA:88,136080
DA:89,136080
DA:90,136080
DA:91,136080
DA:93,136080
DA:95,136080
DA:97,136080
DA:99,136080
DA:101,136080
DA:103,136080
DA:105,136080
DA:107,136080
DA:109,136080
DA:111,136080
DA:113,136080
DA:115,136080
DA:117,136080
DA:119,136080
DA:121,136080
DA:123,136080
DA:126,136080
DA:128,136080
DA:130,136080
DA:132,136080
DA:134,136080
DA:136,136080
DA:138,136080
DA:140,136080
DA:142,136080
DA:144,136080
DA:146,136080
DA:148,136080
DA:150,136080
DA:152,136080
DA:154,136080
DA:156,136080
DA:159,136080
DA:160,136080
DA:161,136080
DA:162,136080
DA:163,136080
DA:164,136080
DA:165,136080
DA:166,136080
DA:167,136080
DA:168,136080
DA:169,136080
DA:170,136080
DA:171,136080
DA:172,136080
DA:173,136080
DA:174,136080
DA:176,136080
DA:177,136080
DA:178,136080
DA:179,136080
DA:180,136080
DA:181,136080
DA:182,136080
DA:183,136080
DA:184,136080
DA:185,136080
DA:186,136080
DA:187,136080
DA:188,136080
DA:189,136080
DA:190,136080
DA:191,136080
DA:193,136080
DA:194,136080
DA:195,136080
DA:196,136080
DA:197,136080
DA:198,136080
DA:199,136080
DA:200,136080
DA:201,136080
DA:202,136080
DA:203,136080
DA:204,136080
DA:205,136080
DA:206,136080
DA:207,136080
DA:208,136080
DA:210,136080
DA:211,136080
DA:212,136080
DA:213,136080
DA:214,136080
DA:215,136080
DA:216,136080
DA:217,136080
DA:218,136080
DA:219,136080
DA:220,136080
DA:221,136080
DA:222,136080
DA:223,136080
DA:224,136080
DA:225,136080
DA:227,136080
DA:228,136080
DA:229,136080
DA:230,136080
DA:231,136080
DA:232,136080
DA:233,136080
DA:234,136080
DA:235,136080
DA:236,136080
DA:237,136080
DA:238,136080
DA:239,136080
DA:240,136080
DA:241,136080
DA:242,136080
DA:244,136080
DA:245,136080
DA:246,136080
DA:247,136080
DA:248,136080
DA:249,136080
DA:250,136080
DA:251,136080
DA:252,136080
DA:253,136080
DA:254,136080
DA:255,136080
DA:256,136080
DA:257,136080
DA:258,136080
DA:259,136080
DA:262,136080
DA:264,136080
DA:266,136080
DA:268,136080
DA:270,136080
DA:272,136080
DA:274,136080
DA:276,136080
DA:278,136080
DA:280,136080
DA:282,136080
DA:284,136080
DA:286,136080
DA:288,136080
DA:290,136080
DA:292,136080
DA:294,136080
DA:295,136080
DA:296,136080
DA:297,136080
DA:298,136080
DA:299,136080
DA:300,136080
DA:301,136080
DA:302,136080
DA:303,136080
DA:304,136080
DA:305,136080
DA:306,136080
DA:307,136080
DA:308,136080
DA:309,136080
DA:311,136080
DA:312,136080
DA:313,136080
DA:314,136080
DA:315,136080
DA:316,136080
DA:317,136080
DA:318,136080
DA:319,136080
DA:320,136080
DA:321,136080
DA:322,136080
DA:323,136080
DA:324,136080
DA:325,136080
DA:326,136080
DA:328,1620
DA:333,0
DA:337,0
DA:341,0
DA:342,0
DA:343,0
DA:346,0
DA:347,0
DA:351,0
DA:352,0
DA:355,0
DA:356,0
DA:358,0
DA:361,0
DA:365,0
DA:368,0
DA:369,0
DA:371,0
DA:372,0
DA:373,0
DA:375,0
DA:380,0
DA:384,0
DA:385,0
DA:386,0
DA:390,0
DA:391,0
DA:392,0
DA:395,0
DA:396,0
DA:400,0
DA:401,0
DA:403,0
DA:404,0
DA:405,0
DA:408,0
DA:412,0
DA:415,0
DA:416,0
DA:418,0
DA:419,0
DA:420,0
DA:422,0
DA:425,1620
DA:431,1620
DA:432,270
DA:433,270
DA:436,270
DA:438,270
DA:439,270
DA:442,270
DA:444,270
DA:445,270
DA:448,270
DA:450,270
DA:451,270
DA:454,270
DA:456,270
DA:457,270
DA:460,270
DA:462,270
DA:463,270
DA:466,270
DA:468,0
DA:469,0
DA:473,1620
DA:486,1620
DA:497,1620
DA:498,1620
DA:499,0
DA:501,0
DA:502,0
DA:503,0
DA:504,0
DA:508,1620
DA:509,1620
DA:511,1620
DA:513,1620
DA:514,1620
DA:515,1620
DA:516,1620
DA:517,1620
DA:518,1620
DA:519,1620
DA:527,1620
DA:529,1620
DA:533,180
DA:536,60
DA:537,60
DA:538,60
DA:539,0
DA:545,1440
DA:547,0
DA:548,0
DA:549,0
DA:550,0
DA:551,0
DA:552,0
DA:553,0
DA:554,0
DA:555,0
DA:556,0
DA:557,0
DA:558,0
DA:559,0
DA:560,0
DA:561,0
DA:562,0
DA:563,0
DA:564,0
DA:565,0
DA:566,0
DA:567,0
DA:568,0
DA:569,0
DA:570,0
DA:571,0
DA:572,180
DA:573,180
DA:574,180
DA:575,180
DA:576,180
DA:577,180
DA:578,120
DA:579,120
DA:580,60
DA:581,60
DA:582,0
DA:583,0
DA:584,0
DA:591,1620
LF:347
LH:269
end_of_record
TN:
SF:/home/fboemer/repos/DBIO/intel-hexl/hexl/eltwise/eltwise-mult-mod-internal.hpp
FN:32,_ZN5intel4hexl20EltwiseMultModNativeILi2EEEvPmPKmS4_mm
FN:32,_ZN5intel4hexl20EltwiseMultModNativeILi4EEEvPmPKmS4_mm
FN:32,_ZN5intel4hexl20EltwiseMultModNativeILi1EEEvPmPKmS4_mm
FNDA:1878,_ZN5intel4hexl20EltwiseMultModNativeILi1EEEvPmPKmS4_mm
FNDA:1742,_ZN5intel4hexl20EltwiseMultModNativeILi4EEEvPmPKmS4_mm
FNDA:1800,_ZN5intel4hexl20EltwiseMultModNativeILi2EEEvPmPKmS4_mm
FNF:3
FNH:3
DA:32,5420
DA:46,5420
DA:48,5420
DA:49,5420
DA:51,5420
DA:53,5420
DA:56,58130812
DA:59,58125392
DA:60,58125392
DA:63,58125392
DA:66,58125392
DA:69,58125392
DA:73,58125392
DA:76,58125392
DA:79,58125392
DA:81,58125392
DA:82,58125392
DA:83,58125392
DA:85,5420
LF:19
LH:19
end_of_record
TN:
SF:/home/fboemer/repos/DBIO/intel-hexl/hexl/eltwise/eltwise-mult-mod.cpp
FN:18,_ZN5intel4hexl14EltwiseMultModEPmPKmS3_mmm
FNDA:3786,_ZN5intel4hexl14EltwiseMultModEPmPKmS3_mmm
FNF:1
FNH:1
DA:18,3786
DA:21,3786
DA:22,3786
DA:23,3786
DA:24,3786
DA:25,3786
DA:26,3786
DA:27,3786
DA:28,3786
DA:31,3786
DA:33,3786
DA:37,3786
DA:38,3786
DA:42,1804
DA:43,604
DA:44,604
DA:45,604
DA:46,600
DA:47,600
DA:48,600
DA:49,600
DA:50,600
DA:51,600
DA:54,1982
DA:55,662
DA:56,662
DA:57,662
DA:58,660
DA:59,660
DA:60,660
DA:61,660
DA:62,660
DA:63,660
DA:66,3786
DA:70,0
DA:71,0
DA:72,0
DA:73,0
DA:74,0
DA:75,0
DA:76,0
DA:77,0
DA:78,0
DA:79,0
DA:80,0
LF:45
LH:34
end_of_record
TN:
SF:/home/fboemer/repos/DBIO/intel-hexl/hexl/eltwise/eltwise-reduce-mod-avx512.cpp
FN:21,_ZN5intel4hexl22EltwiseReduceModAVX512EPmPKmmmmm
FNDA:5208,_ZN5intel4hexl22EltwiseReduceModAVX512EPmPKmmmmm
FNF:1
FNH:1
DA:21,5208
DA:25,5208
DA:26,5208
DA:27,5208
DA:28,5208
DA:30,5208
DA:31,5208
DA:32,5208
DA:33,5208
DA:34,5208
DA:36,5208
DA:37,5208
DA:38,5208
DA:41,5208
DA:42,5208
DA:43,7
DA:45,7
DA:46,7
DA:47,7
DA:50,5208
DA:51,5208
DA:52,5208
DA:53,5208
DA:54,5208
DA:56,5208
DA:58,167703
DA:59,166401
DA:60,166401
DA:61,166401
DA:62,166401
DA:63,166401
DA:64,166401
DA:65,166401
DA:70,3
DA:71,1
DA:72,1
DA:73,1
DA:74,1
DA:75,1
DA:76,1
DA:77,1
DA:81,3904
DA:82,3904
DA:83,335403
DA:84,332801
DA:85,332801
DA:86,332801
DA:87,332801
DA:88,332801
DA:89,332801
DA:90,332801
DA:91,332801
DA:94,3904
DA:95,167703
DA:96,166401
DA:97,166401
DA:98,166401
DA:99,166401
DA:100,166401
DA:101,166401
DA:102,166401
DA:107,5208
LF:62
LH:62
end_of_record
TN:
SF:/home/fboemer/repos/DBIO/intel-hexl/hexl/eltwise/eltwise-reduce-mod.cpp
FN:16,_ZN5intel4hexl22EltwiseReduceModNativeEPmPKmmmmm
FN:69,_ZN5intel4hexl16EltwiseReduceModEPmPKmmmmm
FNDA:5207,_ZN5intel4hexl22EltwiseReduceModNativeEPmPKmmmmm
FNDA:5,_ZN5intel4hexl16EltwiseReduceModEPmPKmmmmm
FNF:2
FNH:2
DA:16,5207
DA:20,5207
DA:21,5207
DA:22,5207
DA:23,5207
DA:24,5207
DA:26,5207
DA:27,5207
DA:28,5207
DA:29,5207
DA:30,5207
DA:32,5207
DA:34,5207
DA:35,5207
DA:37,1332505
DA:38,1331204
DA:44,9
DA:45,11
DA:50,3904
DA:51,3904
DA:52,2665007
DA:53,5324810
DA:58,3904
DA:59,1332509
DA:60,1946078
DA:67,5207
DA:69,5
DA:72,5
DA:73,5
DA:74,5
DA:75,5
DA:76,5
DA:78,5
DA:79,5
DA:80,5
DA:82,5
DA:83,7
DA:84,6
DA:89,4
DA:90,4
DA:92,4
DA:95,0
DA:96,0
LF:43
LH:41
end_of_record
TN:
SF:/home/fboemer/repos/DBIO/intel-hexl/hexl/eltwise/eltwise-sub-mod-avx512.cpp
FN:19,_ZN5intel4hexl19EltwiseSubModAVX512EPmPKmS3_mm
FN:65,_ZN5intel4hexl19EltwiseSubModAVX512EPmPKmmmm
FNDA:6202,_ZN5intel4hexl19EltwiseSubModAVX512EPmPKmS3_mm
FNDA:6202,_ZN5intel4hexl19EltwiseSubModAVX512EPmPKmmmm
FNF:2
FNH:2
DA:19,6202
DA:22,6202
DA:23,6202
DA:24,6202
DA:25,6202
DA:26,6202
DA:27,6202
DA:28,6202
DA:29,6202
DA:30,6202
DA:31,6202
DA:33,6202
DA:34,6202
DA:35,6200
DA:36,6200
DA:37,6200
DA:38,6200
DA:39,6200
DA:42,6202
DA:43,6202
DA:44,6202
DA:45,6202
DA:47,6202
DA:48,136404
DA:49,130202
DA:50,130202
DA:52,130202
DA:53,130202
DA:55,130202
DA:57,130202
DA:58,130202
DA:59,130202
DA:62,6202
DA:63,6202
DA:65,6202
DA:67,6202
DA:68,6202
DA:69,6202
DA:70,6202
DA:71,6202
DA:72,6202
DA:73,6202
DA:74,6202
DA:76,6202
DA:77,6202
DA:78,6200
DA:79,6200
DA:80,6200
DA:81,6200
DA:84,6202
DA:85,6202
DA:86,6202
DA:87,6202
DA:89,6202
DA:90,136404
DA:91,130202
DA:93,130202
DA:94,130202
DA:96,130202
DA:98,130202
DA:99,130202
DA:102,6202
DA:103,6202
LF:63
LH:63
end_of_record
TN:
SF:/home/fboemer/repos/DBIO/intel-hexl/hexl/eltwise/eltwise-sub-mod.cpp
FN:15,_ZN5intel4hexl19EltwiseSubModNativeEPmPKmS3_mm
FN:43,_ZN5intel4hexl19EltwiseSubModNativeEPmPKmmmm
FN:67,_ZN5intel4hexl13EltwiseSubModEPmPKmS3_mm
FN:90,_ZN5intel4hexl13EltwiseSubModEPmPKmmmm
FNDA:0,_ZN5intel4hexl13EltwiseSubModEPmPKmmmm
FNDA:12402,_ZN5intel4hexl19EltwiseSubModNativeEPmPKmmmm
FNDA:12402,_ZN5intel4hexl19EltwiseSubModNativeEPmPKmS3_mm
FNDA:0,_ZN5intel4hexl13EltwiseSubModEPmPKmS3_mm
FNF:4
FNH:2
DA:15,12402
DA:18,12402
DA:19,12402
DA:20,12402
DA:21,12402
DA:22,12402
DA:23,12402
DA:24,12402
DA:25,12402
DA:26,12402
DA:27,12402
DA:29,12402
DA:30,1116018
DA:31,1103616
DA:32,567166
DA:34,536450
DA:37,1103616
DA:38,1103616
DA:39,1103616
DA:41,12402
DA:43,12402
DA:45,12402
DA:46,12402
DA:47,12402
DA:48,12402
DA:49,12402
DA:50,12402
DA:51,12402
DA:52,12402
DA:54,12402
DA:55,1116018
DA:56,1103616
DA:57,562386
DA:59,541230
DA:62,1103616
DA:63,1103616
DA:65,12402
DA:67,0
DA:69,0
DA:70,0
DA:71,0
DA:72,0
DA:73,0
DA:74,0
DA:75,0
DA:76,0
DA:77,0
DA:80,0
DA:81,0
DA:82,0
DA:86,0
DA:87,0
DA:90,0
DA:92,0
DA:93,0
DA:94,0
DA:95,0
DA:96,0
DA:97,0
DA:98,0
DA:101,0
DA:102,0
DA:103,0
DA:107,0
DA:108,0
LF:65
LH:37
end_of_record
TN:
SF:/home/fboemer/repos/DBIO/intel-hexl/hexl/include/hexl/ntt/ntt.hpp
FN:43,_ZN5intel4hexl3NTTD2Ev
FN:58,_ZN5intel4hexl3NTTC2INS0_10allocators15CustomAllocatorEJEEEmmOT_DpOT0_
FN:79,_ZN5intel4hexl3NTTC2ISaIiEJEEEmmmOT_DpOT0_
FN:113,_ZNK5intel4hexl3NTT21GetMinimalRootOfUnityEv
FN:116,_ZNK5intel4hexl3NTT9GetDegreeEv
FN:119,_ZNK5intel4hexl3NTT10GetModulusEv
FN:122,_ZNK5intel4hexl3NTT20GetRootOfUnityPowersEv
FN:127,_ZN5intel4hexl3NTT19GetRootOfUnityPowerEm
FN:131,_ZNK5intel4hexl3NTT28GetPrecon32RootOfUnityPowersEv
FN:137,_ZNK5intel4hexl3NTT28GetPrecon64RootOfUnityPowersEv
FN:143,_ZNK5intel4hexl3NTT26GetAVX512RootOfUnityPowersEv
FN:149,_ZNK5intel4hexl3NTT34GetAVX512Precon32RootOfUnityPowersEv
FN:155,_ZNK5intel4hexl3NTT34GetAVX512Precon52RootOfUnityPowersEv
FN:161,_ZNK5intel4hexl3NTT34GetAVX512Precon64RootOfUnityPowersEv
FN:166,_ZNK5intel4hexl3NTT23GetInvRootOfUnityPowersEv
FN:171,_ZN5intel4hexl3NTT22GetInvRootOfUnityPowerEm
FN:178,_ZNK5intel4hexl3NTT31GetPrecon32InvRootOfUnityPowersEv
FN:185,_ZNK5intel4hexl3NTT31GetPrecon52InvRootOfUnityPowersEv
FN:192,_ZNK5intel4hexl3NTT31GetPrecon64InvRootOfUnityPowersEv
FN:197,_ZN5intel4hexl3NTT13MaxDegreeBitsEv
FN:200,_ZN5intel4hexl3NTT14MaxModulusBitsEv
FNDA:480,_ZNK5intel4hexl3NTT31GetPrecon52InvRootOfUnityPowersEv
FNDA:942,_ZNK5intel4hexl3NTT31GetPrecon64InvRootOfUnityPowersEv
FNDA:0,_ZNK5intel4hexl3NTT28GetPrecon32RootOfUnityPowersEv
FNDA:320,_ZNK5intel4hexl3NTT34GetAVX512Precon64RootOfUnityPowersEv
FNDA:1,_ZNK5intel4hexl3NTT21GetMinimalRootOfUnityEv
FNDA:320,_ZNK5intel4hexl3NTT31GetPrecon32InvRootOfUnityPowersEv
FNDA:614,_ZNK5intel4hexl3NTT20GetRootOfUnityPowersEv
FNDA:6,_ZN5intel4hexl3NTT19GetRootOfUnityPowerEm
FNDA:1,_ZN5intel4hexl3NTTC2INS0_10allocators15CustomAllocatorEJEEEmmOT_DpOT0_
FNDA:480,_ZNK5intel4hexl3NTT34GetAVX512Precon52RootOfUnityPowersEv
FNDA:1120,_ZNK5intel4hexl3NTT26GetAVX512RootOfUnityPowersEv
FNDA:1,_ZN5intel4hexl3NTT22GetInvRootOfUnityPowerEm
FNDA:337,_ZNK5intel4hexl3NTT28GetPrecon64RootOfUnityPowersEv
FNDA:320,_ZNK5intel4hexl3NTT34GetAVX512Precon32RootOfUnityPowersEv
FNDA:2240,_ZNK5intel4hexl3NTT10GetModulusEv
FNDA:1,_ZN5intel4hexl3NTTC2ISaIiEJEEEmmmOT_DpOT0_
FNDA:1,_ZNK5intel4hexl3NTT9GetDegreeEv
FNDA:603,_ZN5intel4hexl3NTTD2Ev
FNDA:0,_ZN5intel4hexl3NTT14MaxModulusBitsEv
FNDA:1744,_ZNK5intel4hexl3NTT23GetInvRootOfUnityPowersEv
FNDA:0,_ZN5intel4hexl3NTT13MaxDegreeBitsEv
FNF:21
FNH:18
DA:43,603
DA:58,1
DA:62,1
DA:79,1
DA:84,1
DA:113,1
DA:116,1
DA:119,2240
DA:122,701
DA:123,701
DA:127,6
DA:131,0
DA:132,0
DA:137,424
DA:138,424
DA:143,1140
DA:144,1140
DA:149,320
DA:150,320
DA:155,495
DA:156,495
DA:161,325
DA:162,325
DA:166,1803
DA:167,1803
DA:171,1
DA:172,1
DA:178,320
DA:179,320
DA:185,495
DA:186,495
DA:192,986
DA:193,986
DA:197,0
DA:200,0
LF:35
LH:31
end_of_record
TN:
SF:/home/fboemer/repos/DBIO/intel-hexl/hexl/include/hexl/number-theory/number-theory.hpp
FN:29,_ZN5intel4hexl14MultiplyFactorC2Emmm
FN:43,_ZNK5intel4hexl14MultiplyFactor13BarrettFactorEv
FN:46,_ZNK5intel4hexl14MultiplyFactor7OperandEv
FN:54,_ZN5intel4hexl12IsPowerOfTwoEm
FN:57,_ZN5intel4hexl4Log2Em
FN:59,_ZN5intel4hexl13IsPowerOfFourEm
FN:64,_ZN5intel4hexl12MaximumValueEm
FN:128,_ZN5intel4hexl15MultiplyModLazyILi64EEEmmmmm
FN:128,_ZN5intel4hexl15MultiplyModLazyILi52EEEmmmmm
FN:149,_ZN5intel4hexl15MultiplyModLazyILi64EEEmmmm
FN:149,_ZN5intel4hexl15MultiplyModLazyILi52EEEmmmm
FN:169,_ZN5intel4hexl9AddUInt64EmmPm
FN:195,_ZN5intel4hexl15BarrettReduce64Emmm
FN:211,_ZN5intel4hexl9ReduceModILi2EEEmmmPKmS3_
FN:211,_ZN5intel4hexl9ReduceModILi8EEEmmmPKmS3_
FN:211,_ZN5intel4hexl9ReduceModILi1EEEmmmPKmS3_
FN:211,_ZN5intel4hexl9ReduceModILi4EEEmmmPKmS3_
FNDA:19,_ZN5intel4hexl15MultiplyModLazyILi64EEEmmmm
FNDA:69,_ZN5intel4hexl13IsPowerOfFourEm
FNDA:0,_ZNK5intel4hexl14MultiplyFactor7OperandEv
FNDA:32,_ZN5intel4hexl4Log2Em
FNDA:48130203,_ZN5intel4hexl9ReduceModILi2EEEmmmPKmS3_
FNDA:77471,_ZN5intel4hexl14MultiplyFactorC2Emmm
FNDA:19,_ZN5intel4hexl15MultiplyModLazyILi64EEEmmmmm
FNDA:7,_ZN5intel4hexl9AddUInt64EmmPm
FNDA:578,_ZN5intel4hexl12MaximumValueEm
FNDA:11,_ZN5intel4hexl15MultiplyModLazyILi52EEEmmmmm
FNDA:46839981,_ZN5intel4hexl9ReduceModILi4EEEmmmPKmS3_
FNDA:1423001,_ZN5intel4hexl12IsPowerOfTwoEm
FNDA:49549611,_ZN5intel4hexl9ReduceModILi1EEEmmmPKmS3_
FNDA:11,_ZN5intel4hexl15MultiplyModLazyILi52EEEmmmm
FNDA:0,_ZN5intel4hexl15BarrettReduce64Emmm
FNDA:25085483,_ZNK5intel4hexl14MultiplyFactor13BarrettFactorEv
FNDA:9423003,_ZN5intel4hexl9ReduceModILi8EEEmmmPKmS3_
FNF:17
FNH:15
DA:29,38334143
DA:30,38334143
DA:31,38256672
DA:33,38256672
DA:34,38256672
DA:35,38256672
DA:36,38334143
DA:37,38241544
DA:39,38320336
DA:40,77471
DA:43,63340354
DA:46,1137
DA:54,1487310
DA:57,12223
DA:59,69
DA:60,117
DA:64,578
DA:65,0
DA:66,578
DA:67,1
DA:69,577
DA:128,45654885
DA:139,91919218
DA:140,45654885
DA:149,30
DA:160,30
DA:161,30
DA:169,7
DA:171,7
DA:172,7
DA:195,1331204
DA:197,1331204
DA:198,1331204
DA:199,1331204
DA:200,1331204
DA:211,258537219
DA:218,49549611
DA:221,100364150
DA:222,54248544
DA:224,48130203
DA:228,54737100
DA:229,26654402
DA:231,54737100
DA:232,27320705
DA:234,46839981
DA:241,9447005
DA:242,4717208
DA:244,9447005
DA:245,4718883
DA:247,9447005
DA:248,4718557
DA:250,9423003
LF:52
LH:51
end_of_record
TN:
SF:/home/fboemer/repos/DBIO/intel-hexl/hexl/include/hexl/util/aligned-allocator.hpp
FN:19,_ZN5intel4hexl14MallocStrategy8allocateEm
FN:21,_ZN5intel4hexl14MallocStrategy10deallocateEPvm
FN:40,_ZN5intel4hexl16AlignedAllocatorImLm64EEC2ESt10shared_ptrINS0_13AllocatorBaseEE
FN:43,_ZN5intel4hexl16AlignedAllocatorImLm64EEC2ERKS2_
FN:50,_ZN5intel4hexl16AlignedAllocatorImLm64EED2Ev
FN:57,_ZN5intel4hexl16AlignedAllocatorImLm64EEeqERKS2_
FN:59,_ZN5intel4hexl16AlignedAllocatorImLm64EEneERKS2_
FN:63,_ZN5intel4hexl16AlignedAllocatorImLm64EE8allocateEm
FN:92,_ZN5intel4hexl16AlignedAllocatorImLm64EE10deallocateEPmm
FNDA:750277,_ZN5intel4hexl16AlignedAllocatorImLm64EEC2ESt10shared_ptrINS0_13AllocatorBaseEE
FNDA:0,_ZN5intel4hexl16AlignedAllocatorImLm64EEeqERKS2_
FNDA:2841119,_ZN5intel4hexl16AlignedAllocatorImLm64EEC2ERKS2_
FNDA:1487126,_ZN5intel4hexl14MallocStrategy8allocateEm
FNDA:1487126,_ZN5intel4hexl14MallocStrategy10deallocateEPvm
FNDA:1428999,_ZN5intel4hexl16AlignedAllocatorImLm64EE10deallocateEPmm
FNDA:1487220,_ZN5intel4hexl16AlignedAllocatorImLm64EE8allocateEm
FNDA:0,_ZN5intel4hexl16AlignedAllocatorImLm64EEneERKS2_
FNDA:3605868,_ZN5intel4hexl16AlignedAllocatorImLm64EED2Ev
FNF:9
FNH:7
DA:19,1487126
DA:21,1487126
DA:22,58163
DA:23,1487126
DA:24,1487126
DA:40,752086
DA:41,753292
DA:43,2847149
DA:44,2855591
DA:50,3626370
DA:57,5427
DA:59,0
DA:63,1487220
DA:64,1487220
DA:65,0
DA:68,1487220
DA:71,1487220
DA:72,1487220
DA:73,1487220
DA:74,0
DA:78,1487220
DA:79,1487220
DA:80,1487220
DA:81,0
DA:85,1487220
DA:86,1422959
DA:87,1487220
DA:89,1487220
DA:92,1487220
DA:93,1428999
DA:94,0
DA:96,1487220
DA:97,1487220
DA:98,1487220
LF:34
LH:29
end_of_record
TN:
SF:/home/fboemer/repos/DBIO/intel-hexl/hexl/include/hexl/util/allocator.hpp
FN:13,_ZN5intel4hexl13AllocatorBaseD2Ev
FN:13,_ZN5intel4hexl13AllocatorBaseD0Ev
FN:31,_ZN5intel4hexl18AllocatorInterfaceINS0_3NTT16AllocatorAdapterINS0_10allocators15CustomAllocatorEJEEEE8allocateEm
FN:31,_ZN5intel4hexl18AllocatorInterfaceINS0_3NTT16AllocatorAdapterISaIiEJEEEE8allocateEm
FN:31,_ZN5intel4hexl18AllocatorInterfaceINS0_22CustomAllocatorAdapterEE8allocateEm
FN:36,_ZN5intel4hexl18AllocatorInterfaceINS0_3NTT16AllocatorAdapterISaIiEJEEEE10deallocateEPvm
FN:36,_ZN5intel4hexl18AllocatorInterfaceINS0_22CustomAllocatorAdapterEE10deallocateEPvm
FN:36,_ZN5intel4hexl18AllocatorInterfaceINS0_3NTT16AllocatorAdapterINS0_10allocators15CustomAllocatorEJEEEE10deallocateEPvm
FN:43,_ZN5intel4hexl18AllocatorInterfaceINS0_3NTT16AllocatorAdapterISaIiEJEEEE13allocate_implEm
FN:43,_ZN5intel4hexl18AllocatorInterfaceINS0_3NTT16AllocatorAdapterINS0_10allocators15CustomAllocatorEJEEEE13allocate_implEm
FN:47,_ZN5intel4hexl18AllocatorInterfaceINS0_3NTT16AllocatorAdapterISaIiEJEEEE15deallocate_implEPvm
FN:47,_ZN5intel4hexl18AllocatorInterfaceINS0_3NTT16AllocatorAdapterINS0_10allocators15CustomAllocatorEJEEEE15deallocate_implEPvm
FNDA:10,_ZN5intel4hexl18AllocatorInterfaceINS0_22CustomAllocatorAdapterEE8allocateEm
FNDA:0,_ZN5intel4hexl18AllocatorInterfaceINS0_3NTT16AllocatorAdapterINS0_10allocators15CustomAllocatorEJEEEE10deallocateEPvm
FNDA:10,_ZN5intel4hexl18AllocatorInterfaceINS0_22CustomAllocatorAdapterEE10deallocateEPvm
FNDA:0,_ZN5intel4hexl18AllocatorInterfaceINS0_3NTT16AllocatorAdapterISaIiEJEEEE8allocateEm
FNDA:0,_ZN5intel4hexl13AllocatorBaseD0Ev
FNDA:0,_ZN5intel4hexl18AllocatorInterfaceINS0_3NTT16AllocatorAdapterINS0_10allocators15CustomAllocatorEJEEEE15deallocate_implEPvm
FNDA:0,_ZN5intel4hexl18AllocatorInterfaceINS0_3NTT16AllocatorAdapterINS0_10allocators15CustomAllocatorEJEEEE8allocateEm
FNDA:7,_ZN5intel4hexl13AllocatorBaseD2Ev
FNDA:0,_ZN5intel4hexl18AllocatorInterfaceINS0_3NTT16AllocatorAdapterINS0_10allocators15CustomAllocatorEJEEEE13allocate_implEm
FNDA:0,_ZN5intel4hexl18AllocatorInterfaceINS0_3NTT16AllocatorAdapterISaIiEJEEEE13allocate_implEm
FNDA:0,_ZN5intel4hexl18AllocatorInterfaceINS0_3NTT16AllocatorAdapterISaIiEJEEEE10deallocateEPvm
FNDA:0,_ZN5intel4hexl18AllocatorInterfaceINS0_3NTT16AllocatorAdapterISaIiEJEEEE15deallocate_implEPvm
FNF:12
FNH:3
DA:13,7
DA:31,10
DA:32,10
DA:36,10
DA:37,10
DA:38,10
DA:43,0
DA:45,0
DA:47,0
DA:50,0
LF:10
LH:6
end_of_record
TN:
SF:/home/fboemer/repos/DBIO/intel-hexl/hexl/include/hexl/util/gcc.hpp
FN:16,_ZN5intel4hexl14MultiplyUInt64Emm
FN:20,_ZN5intel4hexl16BarrettReduce128Emmm
FN:31,_ZN5intel4hexl21DivideUInt128UInt64LoEmmm
FN:42,_ZN5intel4hexl14MultiplyUInt64EmmPmS1_
FN:51,_ZN5intel4hexl16MultiplyUInt64HiILi52EEEmmm
FN:51,_ZN5intel4hexl16MultiplyUInt64HiILi64EEEmmm
FN:57,_ZN5intel4hexl3MSBEm
FNDA:5460,_ZN5intel4hexl3MSBEm
FNDA:19,_ZN5intel4hexl16MultiplyUInt64HiILi64EEEmmm
FNDA:116250814,_ZN5intel4hexl14MultiplyUInt64Emm
FNDA:0,_ZN5intel4hexl16BarrettReduce128Emmm
FNDA:11,_ZN5intel4hexl16MultiplyUInt64HiILi52EEEmmm
FNDA:116250784,_ZN5intel4hexl14MultiplyUInt64EmmPmS1_
FNDA:77477,_ZN5intel4hexl21DivideUInt128UInt64LoEmmm
FNF:7
FNH:6
DA:16,256887775
DA:17,256887775
DA:20,22306545
DA:22,22306545
DA:23,22306545
DA:24,0
DA:26,22306545
DA:31,38334149
DA:32,38334149
DA:33,38310934
DA:34,38334149
DA:36,38332348
DA:42,138557329
DA:44,138557329
DA:45,138557329
DA:46,138557329
DA:47,116250784
DA:51,118330446
DA:52,118330446
DA:53,72066113
DA:57,5460
DA:58,17651
LF:22
LH:21
end_of_record
TN:
SF:/home/fboemer/repos/DBIO/intel-hexl/hexl/include/hexl/util/util.hpp
FN:29,_ZN5intel4hexl3NotENS0_6CMPINTE
FNDA:0,_ZN5intel4hexl3NotENS0_6CMPINTE
FNF:1
FNH:0
DA:29,268800
DA:30,268800
DA:31,0
DA:32,0
DA:33,0
DA:34,0
DA:35,0
DA:36,0
DA:37,0
DA:38,0
DA:39,0
DA:40,0
DA:41,0
DA:42,0
DA:43,0
DA:44,0
DA:45,0
DA:46,0
DA:47,0
DA:48,0
LF:20
LH:2
end_of_record
TN:
SF:/home/fboemer/repos/DBIO/intel-hexl/hexl/ntt/fwd-ntt-avx512.cpp
FN:62,_ZN5intel4hexl12FwdButterflyILi64ELb0EEEvPDv8_xS3_S2_S2_S2_S2_
FN:97,_ZN5intel4hexl5FwdT1ILi64EEEvPmDv8_xS3_mPKmS5_
FN:97,_ZN5intel4hexl5FwdT1ILi52EEEvPmDv8_xS3_mPKmS5_
FN:97,_ZN5intel4hexl5FwdT1ILi32EEEvPmDv8_xS3_mPKmS5_
FN:124,_ZN5intel4hexl5FwdT2ILi32EEEvPmDv8_xS3_mPKmS5_
FN:124,_ZN5intel4hexl5FwdT2ILi52EEEvPmDv8_xS3_mPKmS5_
FN:124,_ZN5intel4hexl5FwdT2ILi64EEEvPmDv8_xS3_mPKmS5_
FN:158,_ZN5intel4hexl5FwdT4ILi52EEEvPmDv8_xS3_mPKmS5_
FN:158,_ZN5intel4hexl5FwdT4ILi32EEEvPmDv8_xS3_mPKmS5_
FN:158,_ZN5intel4hexl5FwdT4ILi64EEEvPmDv8_xS3_mPKmS5_
FN:187,_ZN5intel4hexl5FwdT8ILi52ELb0EEEvPmDv8_xS3_mmPKmS5_
FN:187,_ZN5intel4hexl5FwdT8ILi64ELb1EEEvPmDv8_xS3_mmPKmS5_
FN:187,_ZN5intel4hexl5FwdT8ILi32ELb1EEEvPmDv8_xS3_mmPKmS5_
FN:187,_ZN5intel4hexl5FwdT8ILi64ELb0EEEvPmDv8_xS3_mmPKmS5_
FN:187,_ZN5intel4hexl5FwdT8ILi32ELb0EEEvPmDv8_xS3_mmPKmS5_
FN:187,_ZN5intel4hexl5FwdT8ILi52ELb1EEEvPmDv8_xS3_mmPKmS5_
FN:219,_ZN5intel4hexl34ForwardTransformToBitReverseAVX512ILi32EEEvPmmmPKmS4_mmmm
FN:219,_ZN5intel4hexl34ForwardTransformToBitReverseAVX512ILi52EEEvPmmmPKmS4_mmmm
FN:219,_ZN5intel4hexl34ForwardTransformToBitReverseAVX512ILi64EEEvPmmmPKmS4_mmmm
FN:294,_ZZN5intel4hexl34ForwardTransformToBitReverseAVX512ILi32EEEvPmmmPKmS4_mmmmENKUlmE_clEm
FN:294,_ZZN5intel4hexl34ForwardTransformToBitReverseAVX512ILi64EEEvPmmmPKmS4_mmmmENKUlmE_clEm
FN:294,_ZZN5intel4hexl34ForwardTransformToBitReverseAVX512ILi52EEEvPmmmPKmS4_mmmmENKUlmE_clEm
FNDA:5368,_ZN5intel4hexl5FwdT4ILi64EEEvPmDv8_xS3_mPKmS5_
FNDA:5120,_ZN5intel4hexl5FwdT4ILi32EEEvPmDv8_xS3_mPKmS5_
FNDA:5120,_ZN5intel4hexl5FwdT2ILi32EEEvPmDv8_xS3_mPKmS5_
FNDA:6777,_ZZN5intel4hexl34ForwardTransformToBitReverseAVX512ILi52EEEvPmmmPKmS4_mmmmENKUlmE_clEm
FNDA:40520,_ZN5intel4hexl5FwdT8ILi32ELb0EEEvPmDv8_xS3_mmPKmS5_
FNDA:42499,_ZN5intel4hexl5FwdT8ILi64ELb0EEEvPmDv8_xS3_mmPKmS5_
FNDA:13,_ZN5intel4hexl5FwdT8ILi52ELb1EEEvPmDv8_xS3_mmPKmS5_
FNDA:2259,_ZN5intel4hexl5FwdT2ILi52EEEvPmDv8_xS3_mPKmS5_
FNDA:5368,_ZN5intel4hexl5FwdT2ILi64EEEvPmDv8_xS3_mPKmS5_
FNDA:2259,_ZN5intel4hexl5FwdT4ILi52EEEvPmDv8_xS3_mPKmS5_
FNDA:17513,_ZN5intel4hexl5FwdT8ILi52ELb0EEEvPmDv8_xS3_mmPKmS5_
FNDA:80,_ZN5intel4hexl5FwdT8ILi64ELb1EEEvPmDv8_xS3_mmPKmS5_
FNDA:15360,_ZZN5intel4hexl34ForwardTransformToBitReverseAVX512ILi32EEEvPmmmPKmS4_mmmmENKUlmE_clEm
FNDA:9920,_ZN5intel4hexl34ForwardTransformToBitReverseAVX512ILi32EEEvPmmmPKmS4_mmmm
FNDA:5368,_ZN5intel4hexl5FwdT1ILi64EEEvPmDv8_xS3_mPKmS5_
FNDA:2259,_ZN5intel4hexl5FwdT1ILi52EEEvPmDv8_xS3_mPKmS5_
FNDA:5158912,_ZN5intel4hexl12FwdButterflyILi64ELb0EEEvPDv8_xS3_S2_S2_S2_S2_
FNDA:5120,_ZN5intel4hexl5FwdT1ILi32EEEvPmDv8_xS3_mPKmS5_
FNDA:80,_ZN5intel4hexl5FwdT8ILi32ELb1EEEvPmDv8_xS3_mmPKmS5_
FNDA:16104,_ZZN5intel4hexl34ForwardTransformToBitReverseAVX512ILi64EEEvPmmmPKmS4_mmmmENKUlmE_clEm
FNDA:4023,_ZN5intel4hexl34ForwardTransformToBitReverseAVX512ILi52EEEvPmmmPKmS4_mmmm
FNDA:10411,_ZN5intel4hexl34ForwardTransformToBitReverseAVX512ILi64EEEvPmmmPKmS4_mmmm
FNF:22
FNH:22
DA:62,11856442
DA:65,5158912
DA:70,4902400
DA:71,4906240
DA:72,4906240
DA:73,4906240
DA:75,1787311
DA:76,3574900
DA:77,1787450
DA:81,5158912
DA:82,5162752
DA:84,5162752
DA:86,3840
DA:91,11856442
DA:92,1791290
DA:93,11856442
DA:94,5158912
DA:97,12747
DA:99,12747
DA:100,12747
DA:101,12747
DA:105,825302
DA:106,812555
DA:107,812555
DA:111,812555
DA:112,812555
DA:113,812555
DA:115,812555
DA:117,812555
DA:119,812555
DA:121,12747
DA:124,12747
DA:126,12747
DA:127,12747
DA:129,12747
DA:132,825302
DA:133,812555
DA:134,812555
DA:138,812555
DA:140,812555
DA:141,812555
DA:147,812555
DA:150,812555
DA:151,812555
DA:153,812555
DA:155,12747
DA:158,12747
DA:160,12747
DA:161,12747
DA:162,12747
DA:166,825302
DA:167,812555
DA:168,812555
DA:172,812555
DA:174,812555
DA:175,812555
DA:176,812555
DA:179,812555
DA:180,812555
DA:182,812555
DA:184,12747
DA:187,100705
DA:190,100705
DA:193,1724675
DA:194,1623970
DA:195,1623970
DA:197,1623970
DA:198,1623970
DA:200,1623970
DA:201,1623970
DA:204,11042747
DA:205,9418777
DA:206,9418777
DA:208,9418777
DA:211,9418777
DA:212,9418777
DA:214,1623970
DA:216,100705
DA:219,24354
DA:245,24354
DA:247,24354
DA:248,24354
DA:249,24354
DA:260,24354
DA:261,12747
DA:262,12747
DA:263,12747
DA:265,12747
DA:266,12747
DA:267,12747
DA:269,12747
DA:270,173
DA:273,12574
DA:277,12747
DA:278,12747
DA:279,12747
DA:281,89098
DA:282,76351
DA:283,76351
DA:284,76351
DA:286,76351
DA:287,76351
DA:294,50988
DA:305,38241
DA:308,38241
DA:312,37101
DA:313,12747
DA:316,24354
DA:317,12747
DA:320,11607
DA:323,12747
DA:324,12747
DA:325,12747
DA:326,12747
DA:328,12747
DA:329,12747
DA:330,12747
DA:331,12747
DA:332,12747
DA:333,12747
DA:335,12747
DA:336,12747
DA:337,12747
DA:338,12747
DA:339,12747
DA:340,12747
DA:343,12747
DA:347,835452
DA:348,828946
DA:351,828946
DA:352,828946
DA:357,828946
DA:359,828946
DA:364,11607
DA:365,11607
DA:366,11607
DA:367,11607
DA:369,11607
DA:372,11607
DA:377,11607
DA:378,11607
DA:382,24354
LF:142
LH:142
end_of_record
TN:
SF:/home/fboemer/repos/DBIO/intel-hexl/hexl/ntt/inv-ntt-avx512.cpp
FN:64,_ZN5intel4hexl12InvButterflyILi32ELb1EEEvPDv8_xS3_S2_S2_S2_S2_
FN:64,_ZN5intel4hexl12InvButterflyILi64ELb1EEEvPDv8_xS3_S2_S2_S2_S2_
FN:64,_ZN5intel4hexl12InvButterflyILi64ELb0EEEvPDv8_xS3_S2_S2_S2_S2_
FN:64,_ZN5intel4hexl12InvButterflyILi52ELb0EEEvPDv8_xS3_S2_S2_S2_S2_
FN:64,_ZN5intel4hexl12InvButterflyILi32ELb0EEEvPDv8_xS3_S2_S2_S2_S2_
FN:64,_ZN5intel4hexl12InvButterflyILi52ELb1EEEvPDv8_xS3_S2_S2_S2_S2_
FN:102,_ZN5intel4hexl5InvT1ILi64ELb1EEEvPmDv8_xS3_mPKmS5_
FN:102,_ZN5intel4hexl5InvT1ILi32ELb1EEEvPmDv8_xS3_mPKmS5_
FN:102,_ZN5intel4hexl5InvT1ILi52ELb1EEEvPmDv8_xS3_mPKmS5_
FN:102,_ZN5intel4hexl5InvT1ILi52ELb0EEEvPmDv8_xS3_mPKmS5_
FN:102,_ZN5intel4hexl5InvT1ILi32ELb0EEEvPmDv8_xS3_mPKmS5_
FN:102,_ZN5intel4hexl5InvT1ILi64ELb0EEEvPmDv8_xS3_mPKmS5_
FN:132,_ZN5intel4hexl5InvT2ILi64EEEvPmDv8_xS3_mPKmS5_
FN:132,_ZN5intel4hexl5InvT2ILi32EEEvPmDv8_xS3_mPKmS5_
FN:132,_ZN5intel4hexl5InvT2ILi52EEEvPmDv8_xS3_mPKmS5_
FN:159,_ZN5intel4hexl5InvT4ILi52EEEvPmDv8_xS3_mPKmS5_
FN:159,_ZN5intel4hexl5InvT4ILi32EEEvPmDv8_xS3_mPKmS5_
FN:159,_ZN5intel4hexl5InvT4ILi64EEEvPmDv8_xS3_mPKmS5_
FN:187,_ZN5intel4hexl5InvT8ILi52EEEvPmDv8_xS3_mmPKmS5_
FN:187,_ZN5intel4hexl5InvT8ILi32EEEvPmDv8_xS3_mmPKmS5_
FN:187,_ZN5intel4hexl5InvT8ILi64EEEvPmDv8_xS3_mmPKmS5_
FN:219,_ZN5intel4hexl36InverseTransformFromBitReverseAVX512ILi52EEEvPmmmPKmS4_mmmm
FN:219,_ZN5intel4hexl36InverseTransformFromBitReverseAVX512ILi32EEEvPmmmPKmS4_mmmm
FN:219,_ZN5intel4hexl36InverseTransformFromBitReverseAVX512ILi64EEEvPmmmPKmS4_mmmm
FNDA:10302,_ZN5intel4hexl36InverseTransformFromBitReverseAVX512ILi64EEEvPmmmPKmS4_mmmm
FNDA:4768512,_ZN5intel4hexl12InvButterflyILi64ELb0EEEvPDv8_xS3_S2_S2_S2_S2_
FNDA:0,_ZN5intel4hexl12InvButterflyILi64ELb1EEEvPDv8_xS3_S2_S2_S2_S2_
FNDA:0,_ZN5intel4hexl12InvButterflyILi32ELb1EEEvPDv8_xS3_S2_S2_S2_S2_
FNDA:9920,_ZN5intel4hexl36InverseTransformFromBitReverseAVX512ILi32EEEvPmmmPKmS4_mmmm
FNDA:4129,_ZN5intel4hexl36InverseTransformFromBitReverseAVX512ILi52EEEvPmmmPKmS4_mmmm
FNDA:35480,_ZN5intel4hexl5InvT8ILi32EEEvPmDv8_xS3_mmPKmS5_
FNDA:80,_ZN5intel4hexl5InvT1ILi32ELb1EEEvPmDv8_xS3_mPKmS5_
FNDA:5120,_ZN5intel4hexl5InvT2ILi32EEEvPmDv8_xS3_mPKmS5_
FNDA:5312,_ZN5intel4hexl5InvT2ILi64EEEvPmDv8_xS3_mPKmS5_
FNDA:15653,_ZN5intel4hexl5InvT8ILi52EEEvPmDv8_xS3_mmPKmS5_
FNDA:80,_ZN5intel4hexl5InvT1ILi64ELb1EEEvPmDv8_xS3_mPKmS5_
FNDA:2312,_ZN5intel4hexl5InvT2ILi52EEEvPmDv8_xS3_mPKmS5_
FNDA:5312,_ZN5intel4hexl5InvT4ILi64EEEvPmDv8_xS3_mPKmS5_
FNDA:5120,_ZN5intel4hexl5InvT4ILi32EEEvPmDv8_xS3_mPKmS5_
FNDA:5232,_ZN5intel4hexl5InvT1ILi64ELb0EEEvPmDv8_xS3_mPKmS5_
FNDA:0,_ZN5intel4hexl12InvButterflyILi52ELb1EEEvPDv8_xS3_S2_S2_S2_S2_
FNDA:5040,_ZN5intel4hexl5InvT1ILi32ELb0EEEvPmDv8_xS3_mPKmS5_
FNDA:2302,_ZN5intel4hexl5InvT1ILi52ELb0EEEvPmDv8_xS3_mPKmS5_
FNDA:10,_ZN5intel4hexl5InvT1ILi52ELb1EEEvPmDv8_xS3_mPKmS5_
FNDA:0,_ZN5intel4hexl12InvButterflyILi32ELb0EEEvPDv8_xS3_S2_S2_S2_S2_
FNDA:0,_ZN5intel4hexl12InvButterflyILi52ELb0EEEvPDv8_xS3_S2_S2_S2_S2_
FNDA:2312,_ZN5intel4hexl5InvT4ILi52EEEvPmDv8_xS3_mPKmS5_
FNDA:36822,_ZN5intel4hexl5InvT8ILi64EEEvPmDv8_xS3_mmPKmS5_
FNF:24
FNH:19
DA:64,11043863
DA:66,11043863
DA:67,11043863
DA:71,7813
DA:73,11036050
DA:74,11036050
DA:75,11036050
DA:79,4579840
DA:80,4579840
DA:81,4579840
DA:82,4579840
DA:84,1691671
DA:85,1691671
DA:86,1691671
DA:90,4772352
DA:91,4772352
DA:93,4772352
DA:95,4772352
DA:99,4768512
DA:102,12744
DA:104,12744
DA:105,12744
DA:106,12744
DA:110,825293
DA:111,812549
DA:112,812549
DA:116,812549
DA:118,812549
DA:119,812549
DA:121,812549
DA:124,812549
DA:125,812549
DA:127,812549
DA:129,12744
DA:132,12744
DA:136,825293
DA:137,812549
DA:141,812549
DA:143,812549
DA:144,812549
DA:146,812549
DA:149,812549
DA:150,812549
DA:151,812549
DA:153,812549
DA:154,812549
DA:156,12744
DA:159,12744
DA:161,12744
DA:165,825293
DA:166,812549
DA:170,812549
DA:172,812549
DA:173,812549
DA:175,812549
DA:178,812549
DA:179,812549
DA:181,812549
DA:182,812549
DA:184,12744
DA:187,87955
DA:190,87955
DA:193,1710779
DA:194,1622824
DA:195,1622824
DA:197,1622824
DA:198,1622824
DA:200,1622824
DA:201,1622824
DA:204,10229040
DA:205,8606216
DA:206,8606216
DA:208,8606216
DA:211,8606216
DA:212,8606216
DA:214,1622824
DA:216,87955
DA:219,24351
DA:246,24351
DA:247,24351
DA:248,24351
DA:249,24351
DA:251,24351
DA:252,24351
DA:253,24351
DA:257,24351
DA:261,12744
DA:262,12744
DA:263,12744
DA:264,170
DA:267,12574
DA:271,12744
DA:272,12744
DA:273,12744
DA:274,12744
DA:275,12744
DA:278,12744
DA:279,12744
DA:280,12744
DA:282,12744
DA:283,12744
DA:284,12744
DA:285,12744
DA:288,12744
DA:289,12744
DA:290,12744
DA:291,12744
DA:292,12744
DA:293,12744
DA:294,12744
DA:297,89092
DA:298,76348
DA:299,76348
DA:300,76348
DA:301,76348
DA:302,76348
DA:303,76348
DA:304,76348
DA:308,11607
DA:312,11607
DA:313,11607
DA:317,11607
DA:318,11607
DA:319,125009
DA:320,113402
DA:321,113402
DA:322,113402
DA:324,11607
DA:325,11607
DA:326,11607
DA:327,11607
DA:328,11607
DA:329,11607
DA:330,11607
DA:331,11607
DA:336,24351
DA:340,1137
DA:341,1137
DA:342,1137
DA:343,1137
DA:345,1137
DA:347,1137
DA:348,1137
DA:352,1137
DA:353,1137
DA:355,1137
DA:357,1137
DA:358,1137
DA:360,1137
DA:362,1137
DA:363,1137
DA:367,813686
DA:368,812549
DA:369,812549
DA:373,812549
DA:375,812549
DA:377,812549
DA:380,326400
DA:381,326400
DA:383,326400
DA:384,326400
DA:386,326400
DA:387,326400
DA:390,326400
DA:391,326400
DA:394,486149
DA:397,486149
DA:399,486149
DA:401,486149
DA:403,486149
DA:404,486149
DA:408,812549
DA:410,414467
DA:411,812549
DA:414,812549
DA:415,812549
DA:421,24351
LF:177
LH:177
end_of_record
TN:
SF:/home/fboemer/repos/DBIO/intel-hexl/hexl/ntt/ntt-avx512-util.hpp
FN:24,_ZN5intel4hexl20LoadFwdInterleavedT1EPKmPDv8_xS4_
FN:48,_ZN5intel4hexl20LoadInvInterleavedT1EPKmPDv8_xS4_
FN:74,_ZN5intel4hexl20LoadFwdInterleavedT2EPKmPDv8_xS4_
FN:96,_ZN5intel4hexl20LoadInvInterleavedT2EPKmPDv8_xS4_
FN:117,_ZN5intel4hexl20LoadFwdInterleavedT4EPKmPDv8_xS4_
FN:130,_ZN5intel4hexl20LoadInvInterleavedT4EPKmPDv8_xS4_
FN:154,_ZN5intel4hexl21WriteFwdInterleavedT1EDv8_xS1_PS1_
FN:179,_ZN5intel4hexl21WriteInvInterleavedT4EDv8_xS1_PS1_
FN:193,_ZN5intel4hexl9LoadWOpT2EPKv
FN:205,_ZN5intel4hexl9LoadWOpT4EPKv
FNDA:1,_ZN5intel4hexl20LoadInvInterleavedT2EPKmPDv8_xS4_
FNDA:1,_ZN5intel4hexl20LoadFwdInterleavedT4EPKmPDv8_xS4_
FNDA:0,_ZN5intel4hexl9LoadWOpT4EPKv
FNDA:0,_ZN5intel4hexl9LoadWOpT2EPKv
FNDA:1,_ZN5intel4hexl20LoadInvInterleavedT4EPKmPDv8_xS4_
FNDA:1,_ZN5intel4hexl21WriteFwdInterleavedT1EDv8_xS1_PS1_
FNDA:1,_ZN5intel4hexl21WriteInvInterleavedT4EDv8_xS1_PS1_
FNDA:1,_ZN5intel4hexl20LoadFwdInterleavedT1EPKmPDv8_xS4_
FNDA:1,_ZN5intel4hexl20LoadFwdInterleavedT2EPKmPDv8_xS4_
FNDA:1,_ZN5intel4hexl20LoadInvInterleavedT1EPKmPDv8_xS4_
FNF:10
FNH:8
DA:24,812556
DA:26,812556
DA:29,812557
DA:31,812556
DA:33,812556
DA:36,812556
DA:38,812556
DA:40,812556
DA:41,812556
DA:42,1
DA:48,812550
DA:50,812550
DA:51,812550
DA:52,812550
DA:54,812550
DA:57,812551
DA:59,812550
DA:61,812550
DA:63,812550
DA:65,812550
DA:66,812550
DA:67,812550
DA:68,1
DA:74,812556
DA:76,812556
DA:79,812557
DA:81,812556
DA:83,812556
DA:85,812556
DA:86,812556
DA:88,812556
DA:89,812556
DA:90,1
DA:96,812550
DA:98,812550
DA:100,812551
DA:101,812550
DA:103,812550
DA:105,812550
DA:106,812550
DA:108,812550
DA:109,812550
DA:110,1
DA:117,812556
DA:119,812556
DA:121,812556
DA:122,812557
DA:123,812556
DA:124,812556
DA:125,812556
DA:126,812556
DA:127,812556
DA:128,1
DA:130,812550
DA:132,812550
DA:135,812551
DA:137,812550
DA:138,812550
DA:141,812550
DA:143,812550
DA:145,812550
DA:146,812550
DA:147,1
DA:154,812556
DA:155,812556
DA:156,812556
DA:157,812556
DA:160,812556
DA:162,812556
DA:165,812556
DA:167,812556
DA:168,812556
DA:170,812556
DA:171,812555
DA:172,1
DA:179,812550
DA:180,812550
DA:181,812550
DA:182,812550
DA:183,812550
DA:184,812550
DA:185,812550
DA:186,812550
DA:187,812550
DA:188,812550
DA:189,1
DA:193,1625098
DA:194,1625098
DA:196,1625098
DA:197,1625098
DA:198,1625098
DA:200,1625098
DA:205,1625098
DA:206,1625098
DA:208,1625098
DA:209,1625098
DA:210,1625098
DA:212,1625098
LF:98
LH:98
end_of_record
TN:
SF:/home/fboemer/repos/DBIO/intel-hexl/hexl/ntt/ntt-default.hpp
FN:25,_ZN5intel4hexl18FwdButterflyRadix2EPmS1_mmmm
FN:42,_ZN5intel4hexl22FwdButterflyRadix4LazyEPmS1_mmmm
FN:59,_ZN5intel4hexl18FwdButterflyRadix4EPmS1_S1_S1_mmmmmmmmm
FN:101,_ZN5intel4hexl18InvButterflyRadix2EPmS1_mmmm
FN:117,_ZN5intel4hexl18InvButterflyRadix4EPmS1_S1_S1_mmmmmmmm
FNDA:0,_ZN5intel4hexl18InvButterflyRadix2EPmS1_mmmm
FNDA:0,_ZN5intel4hexl18FwdButterflyRadix2EPmS1_mmmm
FNDA:502443,_ZN5intel4hexl18FwdButterflyRadix4EPmS1_S1_S1_mmmmmmmmm
FNDA:0,_ZN5intel4hexl22FwdButterflyRadix4LazyEPmS1_mmmm
FNDA:480618,_ZN5intel4hexl18InvButterflyRadix4EPmS1_S1_S1_mmmmmmmm
FNF:5
FNH:2
DA:25,41347480
DA:28,41347480
DA:29,41347480
DA:30,18948478
DA:31,8584296
DA:32,23100700
DA:33,41347480
DA:34,41347480
DA:35,41347480
DA:37,22248171
DA:38,0
DA:42,0
DA:45,0
DA:46,0
DA:47,0
DA:49,0
DA:50,0
DA:51,0
DA:52,0
DA:53,0
DA:55,0
DA:56,0
DA:59,502443
DA:65,502443
DA:66,502443
DA:68,502443
DA:69,502443
DA:70,502443
DA:71,502443
DA:87,502443
DA:101,47124762
DA:104,47124762
DA:106,47124762
DA:107,47124762
DA:108,15883689
DA:110,10247736
DA:111,19107209
DA:113,18275779
DA:114,0
DA:117,480618
DA:122,480618
DA:128,480618
DA:130,480618
DA:131,480618
DA:132,480618
DA:133,480618
DA:135,480618
DA:136,480618
DA:137,480618
LF:49
LH:36
end_of_record
TN:
SF:/home/fboemer/repos/DBIO/intel-hexl/hexl/ntt/ntt-internal.cpp
FN:24,_ZN5intel4hexl3NTTC2EmmmSt10shared_ptrINS0_13AllocatorBaseEE
FN:51,_ZN5intel4hexl3NTTC2EmmSt10shared_ptrINS0_13AllocatorBaseEE
FN:54,_ZN5intel4hexl3NTT24ComputeRootOfUnityPowersEv
FN:113,_ZZN5intel4hexl3NTT24ComputeRootOfUnityPowersEvENKUlRKSt6vectorImNS0_16AlignedAllocatorImLm64EEEEmE_clES7_m
FN:171,_ZN5intel4hexl3NTT14CheckArgumentsEmm
FN:188,_ZN5intel4hexl3NTT14ComputeForwardEPmPKmmm
FN:256,_ZN5intel4hexl3NTT14ComputeInverseEPmPKmmm
FNDA:600,_ZN5intel4hexl3NTTC2EmmSt10shared_ptrINS0_13AllocatorBaseEE
FNDA:4824,_ZZN5intel4hexl3NTT24ComputeRootOfUnityPowersEvENKUlRKSt6vectorImNS0_16AlignedAllocatorImLm64EEEEmE_clES7_m
FNDA:107,_ZN5intel4hexl3NTT14ComputeForwardEPmPKmmm
FNDA:603,_ZN5intel4hexl3NTTC2EmmmSt10shared_ptrINS0_13AllocatorBaseEE
FNDA:603,_ZN5intel4hexl3NTT24ComputeRootOfUnityPowersEv
FNDA:59,_ZN5intel4hexl3NTT14ComputeInverseEPmPKmmm
FNDA:0,_ZN5intel4hexl3NTT14CheckArgumentsEmm
FNF:7
FNH:6
DA:24,603
DA:25,603
DA:30,603
DA:31,603
DA:32,603
DA:33,603
DA:34,603
DA:35,603
DA:36,603
DA:37,603
DA:38,603
DA:39,603
DA:40,603
DA:41,1206
DA:42,603
DA:43,603
DA:44,603
DA:46,603
DA:47,603
DA:48,603
DA:49,603
DA:51,600
DA:52,1200
DA:54,603
DA:55,603
DA:56,0
DA:57,1206
DA:60,603
DA:61,603
DA:62,603
DA:63,603
DA:65,3864712
DA:66,3864109
DA:67,7728218
DA:68,3864109
DA:69,3864109
DA:71,3864109
DA:74,603
DA:75,603
DA:81,1206
DA:82,603
DA:83,966786
DA:84,966183
DA:85,966183
DA:87,603
DA:88,603
DA:89,603
DA:90,603
DA:91,603
DA:92,603
DA:98,1206
DA:99,603
DA:100,483695
DA:101,483092
DA:102,483092
DA:103,483092
DA:104,483092
DA:106,603
DA:107,603
DA:108,603
DA:109,603
DA:110,603
DA:111,603
DA:113,5427
DA:115,4824
DA:116,38168897
DA:117,38164073
DA:118,38164073
DA:120,4824
DA:121,603
DA:123,603
DA:124,603
DA:125,603
DA:126,603
DA:129,603
DA:130,603
DA:131,603
DA:134,603
DA:135,603
DA:136,603
DA:137,603
DA:138,603
DA:144,1206
DA:145,603
DA:146,603
DA:148,7427
DA:149,3870933
DA:150,3864109
DA:151,3864109
DA:154,603
DA:157,603
DA:158,603
DA:161,603
DA:162,603
DA:163,603
DA:167,603
DA:168,603
DA:169,603
DA:171,0
DA:172,0
DA:173,0
DA:174,0
DA:175,0
DA:176,0
DA:178,0
DA:179,0
DA:181,0
DA:182,0
DA:183,0
DA:185,0
DA:188,107
DA:191,107
DA:192,107
DA:193,107
DA:195,107
DA:196,107
DA:197,107
DA:198,107
DA:200,107
DA:202,107
DA:203,56
DA:207,107
DA:208,15
DA:209,15
DA:210,15
DA:212,15
DA:213,15
DA:216,15
DA:221,92
DA:222,5
DA:223,0
DA:224,0
DA:225,0
DA:226,0
DA:227,0
DA:228,0
DA:232,5
DA:233,5
DA:234,5
DA:235,5
DA:236,5
DA:238,5
DA:242,5
DA:246,87
DA:247,87
DA:248,87
DA:249,87
DA:251,87
DA:256,59
DA:259,59
DA:260,59
DA:261,59
DA:262,59
DA:263,59
DA:264,59
DA:265,59
DA:266,59
DA:268,59
DA:269,42
DA:273,59
DA:274,15
DA:275,15
DA:276,15
DA:277,15
DA:278,15
DA:281,15
DA:286,44
DA:287,2
DA:288,0
DA:289,0
DA:290,0
DA:291,0
DA:292,0
DA:293,0
DA:297,2
DA:298,2
DA:299,2
DA:300,2
DA:301,2
DA:303,2
DA:307,2
DA:311,42
DA:312,42
DA:313,42
DA:314,42
DA:315,42
LF:186
LH:161
end_of_record
TN:
SF:/home/fboemer/repos/DBIO/intel-hexl/hexl/ntt/ntt-radix-2.cpp
FN:15,_ZN5intel4hexl34ForwardTransformToBitReverseRadix2EPmmmPKmS3_mm
FN:142,_ZN5intel4hexl37ReferenceForwardTransformToBitReverseEPmmmPKm
FN:172,_ZN5intel4hexl36InverseTransformFromBitReverseRadix2EPmmmPKmS3_mm
FNDA:407,_ZN5intel4hexl34ForwardTransformToBitReverseRadix2EPmmmPKmS3_mm
FNDA:271,_ZN5intel4hexl37ReferenceForwardTransformToBitReverseEPmmmPKm
FNDA:633,_ZN5intel4hexl36InverseTransformFromBitReverseRadix2EPmmmPKmS3_mm
FNF:3
FNH:3
DA:15,407
DA:20,407
DA:21,407
DA:22,407
DA:23,407
DA:24,407
DA:25,407
DA:26,407
DA:27,407
DA:29,407
DA:30,407
DA:31,407
DA:32,407
DA:34,407
DA:35,407
DA:37,4569
DA:38,4162
DA:39,4162
DA:41,326720
DA:42,326400
DA:43,326080
DA:45,326400
DA:46,326400
DA:48,326400
DA:49,326400
DA:50,326400
DA:51,326400
DA:52,326400
DA:53,326400
DA:54,326400
DA:55,326400
DA:56,326400
DA:57,489388
DA:62,653158
DA:63,652819
DA:64,652480
DA:66,652819
DA:67,652819
DA:69,652819
DA:70,652819
DA:71,652819
DA:72,652819
DA:73,652819
DA:74,979490
DA:79,1306051
DA:80,1305675
DA:81,1305299
DA:83,1305675
DA:84,1305675
DA:86,1305675
DA:87,1305675
DA:88,1305675
DA:89,1958081
DA:94,2611788
DA:95,2611381
DA:96,2610974
DA:98,2611381
DA:99,2611381
DA:101,2611381
DA:102,2611381
DA:103,3917345
DA:108,328800
DA:109,326080
DA:110,323360
DA:112,326080
DA:113,326080
DA:115,326080
DA:116,326080
DA:117,326080
DA:118,3926720
DA:119,3600640
DA:120,3600640
DA:121,3600640
DA:122,3600640
DA:123,3600640
DA:124,3600640
DA:125,3600640
DA:126,5156659
DA:131,4162
DA:133,407
DA:134,5223106
DA:135,5222712
DA:136,5222712
DA:137,5222712
DA:140,407
DA:142,271
DA:145,271
DA:146,271
DA:147,271
DA:148,271
DA:150,271
DA:151,3332
DA:153,1411894
DA:154,1408833
DA:155,1408833
DA:157,1408833
DA:158,1408833
DA:159,10633159
DA:161,9224326
DA:162,9224326
DA:163,9224326
DA:164,9224326
DA:166,1408833
DA:168,3061
DA:170,271
DA:172,633
DA:177,633
DA:178,633
DA:179,633
DA:180,633
DA:181,633
DA:182,633
DA:183,633
DA:184,633
DA:185,633
DA:186,633
DA:187,633
DA:189,633
DA:190,633
DA:191,633
DA:192,633
DA:194,7136
DA:195,6503
DA:197,6503
DA:199,3316423
DA:200,3315812
DA:201,3315201
DA:203,3315812
DA:204,3315812
DA:206,3315812
DA:207,3315812
DA:209,3315812
DA:214,1658465
DA:215,1657880
DA:216,1657295
DA:218,1657880
DA:219,1657880
DA:221,1657880
DA:222,1657880
DA:224,1657880
DA:225,1657895
DA:230,829505
DA:231,828930
DA:232,828355
DA:234,828930
DA:235,828930
DA:237,828930
DA:238,828930
DA:240,828930
DA:241,828930
DA:242,828930
DA:243,828932
DA:248,415038
DA:249,414464
DA:250,413890
DA:252,414464
DA:253,414464
DA:255,414464
DA:256,414464
DA:258,414464
DA:259,414464
DA:260,414464
DA:261,414464
DA:262,414464
DA:263,414464
DA:264,414464
DA:265,414467
DA:270,417474
DA:271,413316
DA:272,409158
DA:274,413316
DA:275,413316
DA:277,413316
DA:278,413316
DA:279,413316
DA:280,4400264
DA:281,3986948
DA:282,3986948
DA:283,3986948
DA:284,3986948
DA:285,3986948
DA:286,3986948
DA:287,3986948
DA:288,4985678
DA:293,6503
DA:297,633
DA:299,633
DA:300,633
DA:301,633
DA:302,633
DA:303,633
DA:305,633
DA:306,633
DA:307,3316467
DA:311,3315834
DA:312,3315834
DA:313,3315834
DA:314,3315834
DA:317,633
DA:319,6632238
DA:320,6631618
DA:321,6631618
DA:322,6631618
DA:325,633
LF:204
LH:204
end_of_record
TN:
SF:/home/fboemer/repos/DBIO/intel-hexl/hexl/ntt/ntt-radix-4.cpp
FN:15,_ZN5intel4hexl34ForwardTransformToBitReverseRadix4EPmmmPKmS3_mm
FN:238,_ZN5intel4hexl36InverseTransformFromBitReverseRadix4EPmmmPKmS3_mm
FNDA:17,_ZN5intel4hexl34ForwardTransformToBitReverseRadix4EPmmmPKmS3_mm
FNDA:31,_ZN5intel4hexl36InverseTransformFromBitReverseRadix4EPmmmPKmS3_mm
FNF:2
FNH:2
DA:15,17
DA:20,17
DA:21,17
DA:22,17
DA:23,17
DA:24,17
DA:25,17
DA:26,17
DA:27,17
DA:29,17
DA:30,17
DA:31,17
DA:32,17
DA:34,17
DA:35,17
DA:37,17
DA:39,17
DA:40,17
DA:42,17
DA:44,17
DA:45,17
DA:48,17
DA:49,9
DA:51,9
DA:53,9
DA:54,9
DA:56,9
DA:57,9
DA:58,9
DA:59,87390
DA:60,87381
DA:65,17
DA:66,17
DA:68,17
DA:69,17
DA:71,89
DA:72,72
DA:74,72
DA:76,72
DA:79,16397
DA:80,16383
DA:81,16369
DA:83,16383
DA:84,16383
DA:85,16383
DA:86,16383
DA:88,16383
DA:89,16383
DA:90,16383
DA:92,16383
DA:93,16383
DA:94,16383
DA:96,16383
DA:97,16383
DA:98,16383
DA:100,16383
DA:103,16383
DA:106,16383
DA:109,16383
DA:117,65551
DA:118,65535
DA:119,65519
DA:121,65535
DA:122,65535
DA:123,65535
DA:124,65535
DA:126,65535
DA:127,65535
DA:128,65535
DA:130,65535
DA:131,65535
DA:132,65535
DA:134,65535
DA:135,65535
DA:136,65535
DA:138,65535
DA:145,5496
DA:146,5454
DA:147,5412
DA:149,5454
DA:150,5454
DA:151,5454
DA:152,5454
DA:154,5454
DA:155,5454
DA:156,5454
DA:158,5454
DA:159,5454
DA:160,5454
DA:162,5454
DA:163,5454
DA:164,5454
DA:166,28665
DA:167,23211
DA:170,23211
DA:173,23211
DA:176,23211
DA:179,23211
DA:182,23211
DA:185,23211
DA:188,23211
DA:191,23211
DA:194,23211
DA:197,23211
DA:200,23211
DA:203,23211
DA:206,23211
DA:209,23211
DA:212,23211
DA:219,72
DA:222,17
DA:223,262159
DA:224,262142
DA:225,131068
DA:227,262142
DA:228,131335
DA:230,262142
DA:231,262142
DA:235,17
DA:236,17
DA:238,31
DA:243,31
DA:244,31
DA:245,31
DA:246,31
DA:247,31
DA:248,31
DA:249,31
DA:250,31
DA:251,31
DA:252,31
DA:253,31
DA:255,31
DA:256,31
DA:258,31
DA:260,31
DA:261,14
DA:262,14
DA:263,14
DA:264,14
DA:266,14
DA:267,43716
DA:268,43702
DA:269,43702
DA:270,43702
DA:275,31
DA:276,31
DA:278,31
DA:279,31
DA:281,31
DA:283,99
DA:284,68
DA:285,68
DA:287,68
DA:289,68
DA:291,43713
DA:292,43702
DA:293,43702
DA:294,43691
DA:297,43702
DA:298,43702
DA:299,43702
DA:300,43702
DA:302,43702
DA:303,43702
DA:304,43702
DA:306,43702
DA:307,43702
DA:308,43702
DA:310,43702
DA:311,43702
DA:312,43702
DA:314,43702
DA:320,10932
DA:321,10924
DA:322,10924
DA:323,10916
DA:326,10924
DA:327,10924
DA:328,10924
DA:329,10924
DA:331,10924
DA:332,10924
DA:333,10924
DA:335,10924
DA:336,10924
DA:337,10924
DA:339,10924
DA:340,10924
DA:341,10924
DA:343,10924
DA:345,10924
DA:347,10924
DA:349,10924
DA:356,18243
DA:357,18194
DA:358,18194
DA:359,18145
DA:362,18194
DA:363,18194
DA:364,18194
DA:365,18194
DA:367,18194
DA:368,18194
DA:369,18194
DA:371,18194
DA:372,18194
DA:373,18194
DA:375,18194
DA:376,18194
DA:377,18194
DA:379,411414
DA:380,393220
DA:381,393220
DA:388,68
DA:389,68
DA:390,68
DA:393,31
DA:394,31
DA:397,31
DA:398,31
DA:400,31
DA:401,31
DA:402,31
DA:403,31
DA:404,31
DA:406,31
DA:407,31
DA:408,131143
DA:413,131112
DA:414,131112
DA:415,131112
DA:416,131112
DA:419,31
DA:421,262255
DA:422,262224
DA:423,262224
DA:424,262224
DA:427,31
LF:239
LH:239
end_of_record
TN:
SF:/home/fboemer/repos/DBIO/intel-hexl/hexl/number-theory/number-theory.cpp
FN:13,_ZN5intel4hexl10InverseModEmm
FN:44,_ZN5intel4hexl11MultiplyModEmmm
FN:54,_ZN5intel4hexl11MultiplyModEmmmm
FN:61,_ZN5intel4hexl10AddUIntModEmmm
FN:68,_ZN5intel4hexl10SubUIntModEmmm
FN:76,_ZN5intel4hexl6PowModEmmm
FN:91,_ZN5intel4hexl15IsPrimitiveRootEmmm
FN:106,_ZN5intel4hexl21GeneratePrimitiveRootEmm
FN:128,_ZN5intel4hexl20MinimalPrimitiveRootEmm
FN:150,_ZN5intel4hexl11ReverseBitsEmm
FN:166,_ZN5intel4hexl7IsPrimeEm
FN:214,_ZN5intel4hexl14GeneratePrimesEmmbm
FN:238,_ZZN5intel4hexl14GeneratePrimesEmmbmENKUllE_clEl
FNDA:202230,_ZN5intel4hexl6PowModEmmm
FNDA:3867121,_ZN5intel4hexl10InverseModEmm
FNDA:25080024,_ZN5intel4hexl11MultiplyModEmmmm
FNDA:9799990,_ZN5intel4hexl10SubUIntModEmmm
FNDA:3864123,_ZN5intel4hexl11ReverseBitsEmm
FNDA:1193,_ZN5intel4hexl15IsPrimitiveRootEmmm
FNDA:608,_ZN5intel4hexl20MinimalPrimitiveRootEmm
FNDA:22306545,_ZN5intel4hexl11MultiplyModEmmm
FNDA:608,_ZN5intel4hexl21GeneratePrimitiveRootEmm
FNDA:11019,_ZN5intel4hexl7IsPrimeEm
FNDA:25211287,_ZN5intel4hexl10AddUIntModEmmm
FNDA:0,_ZZN5intel4hexl14GeneratePrimesEmmbmENKUllE_clEl
FNDA:269,_ZN5intel4hexl14GeneratePrimesEmmbm
FNF:13
FNH:12
DA:13,3867121
DA:14,3867121
DA:15,3867121
DA:17,3867121
DA:21,3867121
DA:22,3867121
DA:23,3867121
DA:24,120382995
DA:26,116515874
DA:28,116515874
DA:29,116515874
DA:30,116515874
DA:33,116515874
DA:34,116515874
DA:35,116515874
DA:39,3867121
DA:41,3867121
DA:44,22306545
DA:45,22306545
DA:46,22306545
DA:47,22306545
DA:48,22306545
DA:49,22306545
DA:51,22306545
DA:54,25080024
DA:56,25080024
DA:57,25080024
DA:58,25080024
DA:61,25211287
DA:62,25211287
DA:63,25211287
DA:64,25211287
DA:65,25211287
DA:68,9799990
DA:69,9799990
DA:70,9799990
DA:71,9799990
DA:72,9799990
DA:76,202230
DA:77,202230
DA:78,202230
DA:79,1220986
DA:80,1018756
DA:81,467484
DA:83,1018756
DA:84,1018756
DA:86,202230
DA:91,1193
DA:92,1193
DA:95,1193
DA:97,1193
DA:98,1193
DA:101,1193
DA:106,608
DA:108,608
DA:111,608
DA:113,1180
DA:114,1180
DA:115,1180
DA:117,1180
DA:118,608
DA:128,608
DA:129,608
DA:130,608
DA:132,608
DA:134,608
DA:135,608
DA:137,608
DA:140,7730050
DA:141,7729442
DA:144,7729442
DA:147,608
DA:150,3864123
DA:151,3864123
DA:154,3864123
DA:158,56993623
DA:159,53129502
DA:160,53129502
DA:166,11019
DA:170,11019
DA:171,11019
DA:173,73734
DA:174,70105
DA:175,70102
DA:180,182042
DA:181,182042
DA:182,182042
DA:185,178413
DA:187,3629
DA:188,3629
DA:190,3629
DA:191,3629
DA:193,16949
DA:194,15839
DA:195,15839
DA:196,48
DA:199,186531
DA:200,186531
DA:201,184012
DA:202,184012
DA:207,15791
DA:208,11019
DA:214,269
DA:217,269
DA:218,269
DA:219,269
DA:220,269
DA:222,269
DA:224,269
DA:225,269
DA:228,538
DA:230,269
DA:231,34
DA:232,269
DA:235,538
DA:236,269
DA:238,10837
DA:239,0
DA:240,6813
DA:242,3755
DA:244,269
DA:246,269
DA:248,21136
DA:249,10568
DA:250,665
DA:251,665
DA:252,665
DA:256,10299
LF:128
LH:127
end_of_record
TN:
SF:/home/fboemer/repos/DBIO/intel-hexl/hexl/util/avx512-util.hpp
FN:21,_ZN5intel4hexl13ExtractValuesEDv8_x
FN:38,_ZN5intel4hexl16ExtractIntValuesEDv8_x
FN:55,_ZN5intel4hexl13ExtractValuesEDv8_d
FN:72,_ZN5intel4hexl21_mm512_hexl_mulhi_epiILi32EEEDv8_xS2_S2_
FN:80,_ZN5intel4hexl21_mm512_hexl_mulhi_epiILi64EEEDv8_xS2_S2_
FN:126,_ZN5intel4hexl21_mm512_hexl_mulhi_epiILi52EEEDv8_xS2_S2_
FN:141,_ZN5intel4hexl28_mm512_hexl_mulhi_approx_epiILi32EEEDv8_xS2_S2_
FN:149,_ZN5intel4hexl28_mm512_hexl_mulhi_approx_epiILi64EEEDv8_xS2_S2_
FN:185,_ZN5intel4hexl28_mm512_hexl_mulhi_approx_epiILi52EEEDv8_xS2_S2_
FN:199,_ZN5intel4hexl21_mm512_hexl_mullo_epiILi32EEEDv8_xS2_S2_
FN:207,_ZN5intel4hexl21_mm512_hexl_mullo_epiILi64EEEDv8_xS2_S2_
FN:213,_ZN5intel4hexl21_mm512_hexl_mullo_epiILi52EEEDv8_xS2_S2_
FN:228,_ZN5intel4hexl28_mm512_hexl_mullo_add_lo_epiILi52EEEDv8_xS2_S2_S2_
FN:241,_ZN5intel4hexl28_mm512_hexl_mullo_add_lo_epiILi32EEEDv8_xS2_S2_S2_
FN:251,_ZN5intel4hexl28_mm512_hexl_mullo_add_lo_epiILi64EEEDv8_xS2_S2_S2_
FN:260,_ZN5intel4hexl27_mm512_hexl_small_mod_epu64ILi4EEEDv8_xS2_S2_PS2_S3_
FN:260,_ZN5intel4hexl27_mm512_hexl_small_mod_epu64ILi8EEEDv8_xS2_S2_PS2_S3_
FN:260,_ZN5intel4hexl27_mm512_hexl_small_mod_epu64ILi2EEEDv8_xS2_S2_PS2_S3_
FN:260,_ZN5intel4hexl27_mm512_hexl_small_mod_epu64ILi1EEEDv8_xS2_S2_PS2_S3_
FN:289,_ZN5intel4hexl31_mm512_hexl_small_add_mod_epi64EDv8_xS1_S1_
FN:309,_ZN5intel4hexl31_mm512_hexl_small_sub_mod_epi64EDv8_xS1_S1_
FN:323,_ZN5intel4hexl26_mm512_hexl_cmp_epu64_maskEDv8_xS1_NS0_6CMPINTE
FN:347,_ZN5intel4hexl21_mm512_hexl_cmp_epi64EDv8_xS1_NS0_6CMPINTEm
FN:355,_ZN5intel4hexl23_mm512_hexl_cmpge_epu64EDv8_xS1_m
FN:361,_ZN5intel4hexl23_mm512_hexl_cmplt_epu64EDv8_xS1_m
FN:367,_ZN5intel4hexl23_mm512_hexl_cmple_epu64EDv8_xS1_m
FN:375,_ZN5intel4hexl28_mm512_hexl_barrett_reduce64ILi64EEEDv8_xS2_S2_S2_
FN:392,_ZN5intel4hexl23_mm512_hexl_shrdi_epi64EDv8_xS1_j
FN:403,_ZN5intel4hexl23_mm512_hexl_shrdi_epi64ILi53EEEDv8_xS2_S2_
FN:403,_ZN5intel4hexl23_mm512_hexl_shrdi_epi64ILi58EEEDv8_xS2_S2_
FN:403,_ZN5intel4hexl23_mm512_hexl_shrdi_epi64ILi61EEEDv8_xS2_S2_
FN:403,_ZN5intel4hexl23_mm512_hexl_shrdi_epi64ILi57EEEDv8_xS2_S2_
FN:403,_ZN5intel4hexl23_mm512_hexl_shrdi_epi64ILi55EEEDv8_xS2_S2_
FN:403,_ZN5intel4hexl23_mm512_hexl_shrdi_epi64ILi56EEEDv8_xS2_S2_
FN:403,_ZN5intel4hexl23_mm512_hexl_shrdi_epi64ILi60EEEDv8_xS2_S2_
FN:403,_ZN5intel4hexl23_mm512_hexl_shrdi_epi64ILi52EEEDv8_xS2_S2_
FN:403,_ZN5intel4hexl23_mm512_hexl_shrdi_epi64ILi50EEEDv8_xS2_S2_
FN:403,_ZN5intel4hexl23_mm512_hexl_shrdi_epi64ILi49EEEDv8_xS2_S2_
FN:403,_ZN5intel4hexl23_mm512_hexl_shrdi_epi64ILi51EEEDv8_xS2_S2_
FN:403,_ZN5intel4hexl23_mm512_hexl_shrdi_epi64ILi59EEEDv8_xS2_S2_
FN:403,_ZN5intel4hexl23_mm512_hexl_shrdi_epi64ILi54EEEDv8_xS2_S2_
FNDA:0,_ZN5intel4hexl23_mm512_hexl_shrdi_epi64ILi55EEEDv8_xS2_S2_
FNDA:0,_ZN5intel4hexl21_mm512_hexl_mullo_epiILi52EEEDv8_xS2_S2_
FNDA:249,_ZN5intel4hexl13ExtractValuesEDv8_x
FNDA:0,_ZN5intel4hexl23_mm512_hexl_shrdi_epi64ILi58EEEDv8_xS2_S2_
FNDA:0,_ZN5intel4hexl23_mm512_hexl_shrdi_epi64ILi53EEEDv8_xS2_S2_
FNDA:0,_ZN5intel4hexl23_mm512_hexl_shrdi_epi64ILi61EEEDv8_xS2_S2_
FNDA:0,_ZN5intel4hexl23_mm512_hexl_shrdi_epi64ILi57EEEDv8_xS2_S2_
FNDA:1,_ZN5intel4hexl13ExtractValuesEDv8_d
FNDA:0,_ZN5intel4hexl28_mm512_hexl_mullo_add_lo_epiILi64EEEDv8_xS2_S2_S2_
FNDA:947206,_ZN5intel4hexl26_mm512_hexl_cmp_epu64_maskEDv8_xS1_NS0_6CMPINTE
FNDA:201,_ZN5intel4hexl21_mm512_hexl_mullo_epiILi64EEEDv8_xS2_S2_
FNDA:0,_ZN5intel4hexl21_mm512_hexl_mullo_epiILi32EEEDv8_xS2_S2_
FNDA:0,_ZN5intel4hexl23_mm512_hexl_shrdi_epi64EDv8_xS1_j
FNDA:0,_ZN5intel4hexl23_mm512_hexl_shrdi_epi64ILi56EEEDv8_xS2_S2_
FNDA:2,_ZN5intel4hexl23_mm512_hexl_cmple_epu64EDv8_xS1_m
FNDA:0,_ZN5intel4hexl28_mm512_hexl_mullo_add_lo_epiILi52EEEDv8_xS2_S2_S2_
FNDA:0,_ZN5intel4hexl28_mm512_hexl_mullo_add_lo_epiILi32EEEDv8_xS2_S2_S2_
FNDA:0,_ZN5intel4hexl27_mm512_hexl_small_mod_epu64ILi4EEEDv8_xS2_S2_PS2_S3_
FNDA:0,_ZN5intel4hexl31_mm512_hexl_small_sub_mod_epi64EDv8_xS1_S1_
FNDA:202,_ZN5intel4hexl21_mm512_hexl_mulhi_epiILi64EEEDv8_xS2_S2_
FNDA:2,_ZN5intel4hexl23_mm512_hexl_cmpge_epu64EDv8_xS1_m
FNDA:1,_ZN5intel4hexl16ExtractIntValuesEDv8_x
FNDA:1,_ZN5intel4hexl21_mm512_hexl_mulhi_epiILi52EEEDv8_xS2_S2_
FNDA:0,_ZN5intel4hexl23_mm512_hexl_shrdi_epi64ILi50EEEDv8_xS2_S2_
FNDA:0,_ZN5intel4hexl27_mm512_hexl_small_mod_epu64ILi8EEEDv8_xS2_S2_PS2_S3_
FNDA:0,_ZN5intel4hexl28_mm512_hexl_mulhi_approx_epiILi32EEEDv8_xS2_S2_
FNDA:1,_ZN5intel4hexl28_mm512_hexl_mulhi_approx_epiILi64EEEDv8_xS2_S2_
FNDA:6,_ZN5intel4hexl21_mm512_hexl_cmp_epi64EDv8_xS1_NS0_6CMPINTEm
FNDA:0,_ZN5intel4hexl23_mm512_hexl_shrdi_epi64ILi60EEEDv8_xS2_S2_
FNDA:201,_ZN5intel4hexl28_mm512_hexl_barrett_reduce64ILi64EEEDv8_xS2_S2_S2_
FNDA:0,_ZN5intel4hexl31_mm512_hexl_small_add_mod_epi64EDv8_xS1_S1_
FNDA:0,_ZN5intel4hexl23_mm512_hexl_shrdi_epi64ILi52EEEDv8_xS2_S2_
FNDA:0,_ZN5intel4hexl23_mm512_hexl_shrdi_epi64ILi54EEEDv8_xS2_S2_
FNDA:0,_ZN5intel4hexl27_mm512_hexl_small_mod_epu64ILi1EEEDv8_xS2_S2_PS2_S3_
FNDA:2,_ZN5intel4hexl23_mm512_hexl_cmplt_epu64EDv8_xS1_m
FNDA:203,_ZN5intel4hexl27_mm512_hexl_small_mod_epu64ILi2EEEDv8_xS2_S2_PS2_S3_
FNDA:0,_ZN5intel4hexl23_mm512_hexl_shrdi_epi64ILi49EEEDv8_xS2_S2_
FNDA:0,_ZN5intel4hexl21_mm512_hexl_mulhi_epiILi32EEEDv8_xS2_S2_
FNDA:0,_ZN5intel4hexl23_mm512_hexl_shrdi_epi64ILi51EEEDv8_xS2_S2_
FNDA:0,_ZN5intel4hexl23_mm512_hexl_shrdi_epi64ILi59EEEDv8_xS2_S2_
FNDA:0,_ZN5intel4hexl28_mm512_hexl_mulhi_approx_epiILi52EEEDv8_xS2_S2_
FNF:41
FNH:14
DA:21,249
DA:22,249
DA:23,249
DA:25,249
DA:26,249
DA:27,249
DA:28,249
DA:29,249
DA:30,249
DA:31,249
DA:32,1743
DA:34,249
DA:38,1
DA:39,1
DA:40,1
DA:42,1
DA:43,1
DA:44,1
DA:45,1
DA:46,1
DA:47,1
DA:48,1
DA:49,7
DA:51,1
DA:55,1
DA:56,1
DA:57,1
DA:58,9
DA:59,8
DA:61,1
DA:72,0
DA:73,0
DA:74,0
DA:75,0
DA:76,0
DA:80,11190617
DA:82,10755416
DA:85,11190617
DA:87,11190617
DA:88,11190617
DA:89,11190617
DA:90,11190617
DA:91,11190617
DA:104,11190617
DA:111,11190617
DA:112,11190617
DA:113,11190617
DA:118,11190617
DA:119,11190617
DA:120,11190617
DA:121,11190617
DA:126,11303014
DA:127,11303014
DA:128,7220614
DA:141,0
DA:142,0
DA:143,0
DA:144,0
DA:145,0
DA:149,15507333
DA:151,15507333
DA:154,15507333
DA:156,15507333
DA:157,15507333
DA:158,15507333
DA:159,15507333
DA:171,15507333
DA:172,15507333
DA:177,15507333
DA:178,15507333
DA:179,15507333
DA:180,15507333
DA:185,0
DA:186,0
DA:187,0
DA:199,0
DA:200,0
DA:201,0
DA:202,0
DA:203,0
DA:207,36352588
DA:208,26213708
DA:213,9125733
DA:214,9125733
DA:215,7084533
DA:228,9125733
DA:230,9125733
DA:233,9125733
DA:234,9125733
DA:235,9125733
DA:241,0
DA:243,0
DA:244,0
DA:245,0
DA:246,0
DA:247,0
DA:251,25256970
DA:253,25256970
DA:254,24930570
DA:260,45216000
DA:270,43487272
DA:274,6053814
DA:275,6053814
DA:280,4632010
DA:281,4632010
DA:282,4632010
DA:289,13962753
DA:291,13962753
DA:292,13962753
DA:293,13962753
DA:294,13962753
DA:295,13962753
DA:309,260404
DA:311,260404
DA:312,260404
DA:313,260404
DA:314,260404
DA:318,260404
DA:319,260404
DA:320,260404
DA:323,947206
DA:324,947206
DA:325,84800
DA:326,84800
DA:327,353602
DA:328,353602
DA:329,84802
DA:330,84802
DA:331,84800
DA:332,84800
DA:333,84800
DA:334,84800
DA:335,84802
DA:336,84802
DA:337,84800
DA:338,84800
DA:339,84800
DA:340,84800
DA:342,947200
DA:343,0
DA:347,678406
DA:349,678406
DA:350,678412
DA:351,6
DA:355,2
DA:357,2
DA:361,2
DA:363,2
DA:367,2
DA:369,2
DA:375,435402
DA:377,435402
DA:381,435402
DA:382,435402
DA:384,435402
DA:385,201
DA:392,80640
DA:394,80640
DA:395,80640
DA:396,80640
DA:403,343228
DA:405,343228
LF:162
LH:137
end_of_record
TN:
SF:/home/fboemer/repos/DBIO/intel-hexl/hexl/util/util-internal.hpp
FN:16,_ZN5intel4hexl7CompareENS0_6CMPINTEmm
FN:48,_ZN5intel4hexl34GenerateInsecureUniformRandomValueEmm
FN:63,_ZN5intel4hexl35GenerateInsecureUniformRandomValuesEmmm
FN:66,_ZZN5intel4hexl35GenerateInsecureUniformRandomValuesEmmmENKUlvE_clEv
FNDA:309657872,_ZN5intel4hexl34GenerateInsecureUniformRandomValueEmm
FNDA:1152000,_ZN5intel4hexl7CompareENS0_6CMPINTEmm
FNDA:308991692,_ZZN5intel4hexl35GenerateInsecureUniformRandomValuesEmmmENKUlvE_clEv
FNDA:744967,_ZN5intel4hexl35GenerateInsecureUniformRandomValuesEmmm
FNF:4
FNH:4
DA:16,1152000
DA:17,1152000
DA:18,144000
DA:19,144000
DA:20,144000
DA:21,144000
DA:22,144000
DA:23,144000
DA:24,144000
DA:26,0
DA:27,0
DA:28,144000
DA:29,144000
DA:30,144000
DA:31,144000
DA:32,144000
DA:33,144000
DA:34,144000
DA:35,144000
DA:36,144000
DA:37,144000
DA:38,144000
DA:39,0
DA:40,0
DA:48,309657872
DA:50,1180
DA:52,309657872
DA:53,309657873
DA:54,309657872
DA:56,619314564
DA:63,744967
DA:65,1489934
DA:66,308991692
DA:67,308991692
DA:68,744967
DA:69,744967
DA:70,1489934
LF:37
LH:33
end_of_record
